(dp0
VCanada
p1
(dp2
g1
I28463
sVLithuania
p3
I352
sVCambodia
p4
I88
sVEthiopia
p5
I23
sVSri Lanka
p6
I544
sVArgentina
p7
I902
sVBolivia
p8
I81
sVCameroon
p9
I15
sVGhana
p10
I38
sVSaudi Arabia
p11
I133
sVCape Verde
p12
I2
sVGuatemala
p13
I32
sVJordan
p14
I116
sVSpain
p15
I1616
sVLiberia
p16
I2
sVNetherlands
p17
I2937
sVJamaica
p18
I125
sVTanzania
p19
I20
sVNew Zealand
p20
I1383
sVYemen
p21
I9
sVPakistan
p22
I1616
sVAlbania
p23
I36
sVSamoa
p24
I0
sVAustralia
p25
I5366
sVGuam
p26
I2
sVIndia
p27
I16525
sVAzerbaijan
p28
I63
sVKenya
p29
I145
sVSouth Korea
p30
I320
sVTurkey
p31
I1118
sVAfghanistan
p32
I18
sVBangladesh
p33
I513
sVSaint Lucia
p34
I1
sVHungary
p35
I487
sVFrance
p36
I3117
sVBermuda
p37
I24
sVSomalia
p38
I0
sVPeru
p39
I131
sVLaos
p40
I0
sVNorway
p41
I1171
sVSingapore
p42
I1074
sVChina
p43
I1577
sVArmenia
p44
I180
sVDominican Republic
p45
I115
sVUkraine
p46
I1215
sVTonga
p47
I0
sVFinland
p48
I547
sVIndonesia
p49
I528
sVUnited States
p50
I69229
sVSweden
p51
I2440
sVVietnam
p52
I348
sVRussia
p53
I1989
sVBulgaria
p54
I530
sVRomania
p55
I1203
sVPortugal
p56
I1068
sVSouth Africa
p57
I1295
sVCyprus
p58
I78
sVMalaysia
p59
I522
sVAustria
p60
I820
sVUganda
p61
I49
sVJapan
p62
I766
sVBrazil
p63
I2831
sVKuwait
p64
I37
sVPanama
p65
I22
sVCosta Rica
p66
I143
sVAmerican Samoa
p67
I1
sVBahamas
p68
I5
sVIreland
p69
I1459
sVNigeria
p70
I176
sVEcuador
p71
I60
sVCzech Republic
p72
I979
sVBelarus
p73
I327
sVIran
p74
I965
sVAlgeria
p75
I59
sVChile
p76
I318
sVPuerto Rico
p77
I66
sVBelgium
p78
I1387
sVThailand
p79
I325
sVHaiti
p80
I2
sVIraq
p81
I15
sVHong Kong
p82
I368
sVSierra Leone
p83
I0
sVGeorgia
p84
I211
sVDenmark
p85
I1378
sVPhilippines
p86
I1132
sVMoldova
p87
I111
sVMorocco
p88
I131
sVCroatia
p89
I322
sVSwitzerland
p90
I1308
sVGrenada
p91
I0
sVBelize
p92
I3
sVUruguay
p93
I162
sVLebanon
p94
I176
sVUzbekistan
p95
I43
sVDominica
p96
I0
sVColombia
p97
I337
sVTaiwan
p98
I320
sVNicaragua
p99
I26
sVBarbados
p100
I7
sVItaly
p101
I2151
sVSudan
p102
I5
sVNepal
p103
I280
sVVenezuela
p104
I150
sVIsrael
p105
I2452
sVSenegal
p106
I7
sVZimbabwe
p107
I12
sVGermany
p108
I7266
sVPoland
p109
I1958
sVEritrea
p110
I0
sVMacedonia
p111
I107
sVNorth Korea
p112
I2
sVTrinidad and Tobago
p113
I0
sVLatvia
p114
I241
sVGuyana
p115
I3
sVSyria
p116
I75
sVHonduras
p117
I22
sVMyanmar
p118
I65
sVMexico
p119
I765
sVEgypt
p120
I473
sVCuba
p121
I37
sVUnited Kingdom
p122
I17814
sVGreece
p123
I540
sVParaguay
p124
I46
sVFiji
p125
I9
ssg3
(dp126
g1
I220
sg3
I737
sg4
I7
sg5
I1
sg6
I54
sg7
I19
sg8
I0
sg9
I0
sg10
I1
sg11
I3
sg12
I0
sg13
I2
sg14
I6
sg15
I90
sg16
I1
sg17
I168
sg18
I4
sg19
I0
sg20
I34
sg21
I2
sg22
I138
sg23
I4
sg24
I0
sg25
I197
sg26
I0
sg27
I1196
sg28
I10
sg29
I11
sg30
I15
sg31
I53
sg32
I2
sg33
I33
sg34
I0
sg35
I23
sg36
I152
sg37
I0
sg38
I0
sg39
I4
sg40
I0
sg41
I53
sg42
I54
sg43
I57
sg44
I11
sg45
I5
sg46
I59
sg47
I0
sg48
I29
sg49
I54
sg50
I1559
sg51
I95
sg52
I26
sg53
I98
sg54
I35
sg55
I83
sg56
I43
sg57
I67
sg58
I4
sg59
I31
sg60
I43
sg61
I2
sg62
I23
sg63
I80
sg64
I3
sg65
I1
sg66
I3
sg67
I0
sg68
I0
sg69
I54
sg70
I8
sg71
I4
sg72
I43
sg73
I22
sg74
I85
sg75
I3
sg76
I8
sg77
I1
sg78
I66
sg79
I13
sg80
I1
sg81
I1
sg82
I17
sg83
I0
sg84
I11
sg85
I72
sg86
I60
sg87
I6
sg88
I7
sg89
I16
sg90
I64
sg91
I0
sg92
I0
sg93
I4
sg94
I16
sg95
I0
sg96
I0
sg97
I17
sg98
I18
sg99
I2
sg100
I1
sg101
I103
sg102
I0
sg103
I19
sg104
I7
sg105
I99
sg106
I0
sg107
I1
sg108
I314
sg109
I117
sg110
I0
sg111
I7
sg112
I0
sg113
I0
sg114
I7
sg115
I0
sg116
I2
sg117
I0
sg118
I5
sg119
I26
sg120
I19
sg121
I1
sg122
I686
sg123
I31
sg124
I1
sg125
I0
ssg4
(dp127
g1
I65
sg3
I4
sg4
I251
sg5
I0
sg6
I23
sg7
I10
sg8
I0
sg9
I1
sg10
I1
sg11
I3
sg12
I0
sg13
I0
sg14
I0
sg15
I15
sg16
I0
sg17
I44
sg18
I1
sg19
I0
sg20
I18
sg21
I0
sg22
I35
sg23
I0
sg24
I0
sg25
I54
sg26
I0
sg27
I361
sg28
I0
sg29
I1
sg30
I15
sg31
I11
sg32
I0
sg33
I14
sg34
I0
sg35
I9
sg36
I34
sg37
I0
sg38
I0
sg39
I2
sg40
I0
sg41
I9
sg42
I11
sg43
I21
sg44
I0
sg45
I1
sg46
I12
sg47
I0
sg48
I5
sg49
I10
sg50
I519
sg51
I28
sg52
I9
sg53
I20
sg54
I4
sg55
I15
sg56
I8
sg57
I17
sg58
I0
sg59
I17
sg60
I4
sg61
I0
sg62
I10
sg63
I39
sg64
I0
sg65
I1
sg66
I2
sg67
I0
sg68
I0
sg69
I19
sg70
I5
sg71
I0
sg72
I10
sg73
I2
sg74
I8
sg75
I1
sg76
I1
sg77
I0
sg78
I23
sg79
I2
sg80
I0
sg81
I1
sg82
I4
sg83
I0
sg84
I3
sg85
I16
sg86
I35
sg87
I1
sg88
I1
sg89
I3
sg90
I14
sg91
I0
sg92
I0
sg93
I2
sg94
I0
sg95
I0
sg96
I0
sg97
I4
sg98
I1
sg99
I0
sg100
I1
sg101
I43
sg102
I3
sg103
I9
sg104
I2
sg105
I30
sg106
I0
sg107
I0
sg108
I85
sg109
I22
sg110
I0
sg111
I2
sg112
I0
sg113
I0
sg114
I0
sg115
I0
sg116
I1
sg117
I0
sg118
I1
sg119
I6
sg120
I3
sg121
I0
sg122
I149
sg123
I7
sg124
I0
sg125
I0
ssg5
(dp128
g1
I11
sg3
I0
sg4
I0
sg5
I53
sg6
I3
sg7
I0
sg8
I0
sg9
I0
sg10
I0
sg11
I0
sg12
I0
sg13
I0
sg14
I1
sg15
I0
sg16
I0
sg17
I3
sg18
I1
sg19
I0
sg20
I3
sg21
I0
sg22
I10
sg23
I0
sg24
I0
sg25
I17
sg26
I0
sg27
I90
sg28
I0
sg29
I3
sg30
I2
sg31
I1
sg32
I0
sg33
I2
sg34
I0
sg35
I1
sg36
I6
sg37
I0
sg38
I0
sg39
I0
sg40
I0
sg41
I3
sg42
I1
sg43
I2
sg44
I1
sg45
I2
sg46
I7
sg47
I0
sg48
I2
sg49
I2
sg50
I102
sg51
I6
sg52
I2
sg53
I3
sg54
I1
sg55
I0
sg56
I2
sg57
I3
sg58
I1
sg59
I1
sg60
I0
sg61
I0
sg62
I1
sg63
I6
sg64
I0
sg65
I0
sg66
I0
sg67
I0
sg68
I0
sg69
I1
sg70
I2
sg71
I0
sg72
I3
sg73
I1
sg74
I7
sg75
I0
sg76
I1
sg77
I0
sg78
I2
sg79
I1
sg80
I0
sg81
I0
sg82
I1
sg83
I0
sg84
I0
sg85
I3
sg86
I11
sg87
I0
sg88
I0
sg89
I2
sg90
I4
sg91
I0
sg92
I0
sg93
I0
sg94
I1
sg95
I0
sg96
I0
sg97
I1
sg98
I0
sg99
I0
sg100
I0
sg101
I4
sg102
I0
sg103
I3
sg104
I0
sg105
I7
sg106
I0
sg107
I0
sg108
I18
sg109
I6
sg110
I0
sg111
I1
sg112
I0
sg113
I0
sg114
I0
sg115
I0
sg116
I0
sg117
I0
sg118
I0
sg119
I0
sg120
I1
sg121
I1
sg122
I29
sg123
I1
sg124
I0
sg125
I0
ssg6
(dp129
g1
I355
sg3
I23
sg4
I10
sg5
I4
sg6
I1713
sg7
I38
sg8
I4
sg9
I3
sg10
I5
sg11
I7
sg12
I0
sg13
I3
sg14
I8
sg15
I156
sg16
I2
sg17
I203
sg18
I6
sg19
I2
sg20
I79
sg21
I1
sg22
I323
sg23
I3
sg24
I0
sg25
I372
sg26
I0
sg27
I3492
sg28
I12
sg29
I26
sg30
I39
sg31
I132
sg32
I12
sg33
I141
sg34
I0
sg35
I25
sg36
I244
sg37
I0
sg38
I1
sg39
I4
sg40
I0
sg41
I81
sg42
I126
sg43
I138
sg44
I7
sg45
I4
sg46
I119
sg47
I0
sg48
I43
sg49
I134
sg50
I2373
sg51
I121
sg52
I66
sg53
I125
sg54
I49
sg55
I87
sg56
I69
sg57
I152
sg58
I8
sg59
I96
sg60
I53
sg61
I5
sg62
I29
sg63
I186
sg64
I4
sg65
I1
sg66
I6
sg67
I0
sg68
I0
sg69
I86
sg70
I28
sg71
I4
sg72
I63
sg73
I28
sg74
I175
sg75
I9
sg76
I20
sg77
I1
sg78
I103
sg79
I30
sg80
I1
sg81
I5
sg82
I31
sg83
I0
sg84
I15
sg85
I81
sg86
I231
sg87
I11
sg88
I15
sg89
I21
sg90
I82
sg91
I0
sg92
I0
sg93
I12
sg94
I24
sg95
I3
sg96
I0
sg97
I30
sg98
I45
sg99
I0
sg100
I0
sg101
I231
sg102
I1
sg103
I71
sg104
I15
sg105
I148
sg106
I4
sg107
I2
sg108
I363
sg109
I152
sg110
I0
sg111
I5
sg112
I1
sg113
I0
sg114
I8
sg115
I0
sg116
I4
sg117
I1
sg118
I17
sg119
I44
sg120
I73
sg121
I9
sg122
I918
sg123
I32
sg124
I1
sg125
I0
ssg7
(dp130
g1
I825
sg3
I34
sg4
I8
sg5
I1
sg6
I73
sg7
I1819
sg8
I10
sg9
I2
sg10
I6
sg11
I17
sg12
I0
sg13
I5
sg14
I8
sg15
I198
sg16
I1
sg17
I313
sg18
I12
sg19
I2
sg20
I143
sg21
I3
sg22
I208
sg23
I4
sg24
I0
sg25
I489
sg26
I0
sg27
I2037
sg28
I4
sg29
I22
sg30
I31
sg31
I139
sg32
I7
sg33
I78
sg34
I0
sg35
I50
sg36
I315
sg37
I0
sg38
I1
sg39
I15
sg40
I0
sg41
I136
sg42
I98
sg43
I144
sg44
I9
sg45
I12
sg46
I164
sg47
I0
sg48
I66
sg49
I75
sg50
I6253
sg51
I248
sg52
I60
sg53
I203
sg54
I71
sg55
I149
sg56
I120
sg57
I162
sg58
I9
sg59
I60
sg60
I68
sg61
I6
sg62
I70
sg63
I363
sg64
I1
sg65
I4
sg66
I18
sg67
I0
sg68
I0
sg69
I150
sg70
I26
sg71
I10
sg72
I99
sg73
I51
sg74
I124
sg75
I13
sg76
I35
sg77
I5
sg78
I149
sg79
I27
sg80
I0
sg81
I4
sg82
I38
sg83
I0
sg84
I37
sg85
I153
sg86
I139
sg87
I16
sg88
I14
sg89
I51
sg90
I139
sg91
I0
sg92
I0
sg93
I22
sg94
I25
sg95
I3
sg96
I1
sg97
I44
sg98
I22
sg99
I2
sg100
I0
sg101
I278
sg102
I0
sg103
I39
sg104
I17
sg105
I240
sg106
I0
sg107
I3
sg108
I683
sg109
I219
sg110
I0
sg111
I9
sg112
I1
sg113
I0
sg114
I24
sg115
I0
sg116
I8
sg117
I3
sg118
I7
sg119
I90
sg120
I61
sg121
I7
sg122
I1818
sg123
I66
sg124
I8
sg125
I1
ssg8
(dp131
g1
I45
sg3
I0
sg4
I0
sg5
I0
sg6
I7
sg7
I3
sg8
I101
sg9
I0
sg10
I0
sg11
I2
sg12
I0
sg13
I0
sg14
I0
sg15
I8
sg16
I0
sg17
I12
sg18
I2
sg19
I0
sg20
I3
sg21
I1
sg22
I7
sg23
I1
sg24
I0
sg25
I34
sg26
I0
sg27
I139
sg28
I1
sg29
I0
sg30
I1
sg31
I8
sg32
I0
sg33
I3
sg34
I0
sg35
I3
sg36
I15
sg37
I0
sg38
I0
sg39
I0
sg40
I0
sg41
I4
sg42
I14
sg43
I13
sg44
I1
sg45
I0
sg46
I13
sg47
I0
sg48
I1
sg49
I4
sg50
I283
sg51
I11
sg52
I3
sg53
I11
sg54
I2
sg55
I8
sg56
I4
sg57
I5
sg58
I0
sg59
I2
sg60
I3
sg61
I0
sg62
I2
sg63
I25
sg64
I0
sg65
I1
sg66
I1
sg67
I0
sg68
I0
sg69
I5
sg70
I1
sg71
I0
sg72
I5
sg73
I4
sg74
I8
sg75
I1
sg76
I1
sg77
I0
sg78
I3
sg79
I2
sg80
I0
sg81
I1
sg82
I3
sg83
I0
sg84
I1
sg85
I5
sg86
I5
sg87
I1
sg88
I2
sg89
I1
sg90
I10
sg91
I0
sg92
I0
sg93
I2
sg94
I0
sg95
I1
sg96
I0
sg97
I2
sg98
I1
sg99
I1
sg100
I0
sg101
I6
sg102
I0
sg103
I3
sg104
I0
sg105
I12
sg106
I0
sg107
I0
sg108
I33
sg109
I13
sg110
I0
sg111
I2
sg112
I0
sg113
I0
sg114
I1
sg115
I0
sg116
I0
sg117
I0
sg118
I2
sg119
I8
sg120
I4
sg121
I0
sg122
I73
sg123
I1
sg124
I1
sg125
I0
ssg9
(dp132
g1
I9
sg3
I1
sg4
I0
sg5
I0
sg6
I3
sg7
I0
sg8
I0
sg9
I21
sg10
I0
sg11
I0
sg12
I0
sg13
I0
sg14
I0
sg15
I0
sg16
I0
sg17
I4
sg18
I0
sg19
I0
sg20
I0
sg21
I0
sg22
I1
sg23
I0
sg24
I0
sg25
I7
sg26
I0
sg27
I17
sg28
I0
sg29
I2
sg30
I0
sg31
I0
sg32
I0
sg33
I1
sg34
I0
sg35
I0
sg36
I7
sg37
I0
sg38
I0
sg39
I0
sg40
I0
sg41
I0
sg42
I0
sg43
I1
sg44
I1
sg45
I0
sg46
I1
sg47
I0
sg48
I0
sg49
I1
sg50
I31
sg51
I2
sg52
I0
sg53
I0
sg54
I0
sg55
I1
sg56
I1
sg57
I0
sg58
I1
sg59
I1
sg60
I1
sg61
I0
sg62
I1
sg63
I3
sg64
I0
sg65
I0
sg66
I0
sg67
I0
sg68
I0
sg69
I1
sg70
I0
sg71
I0
sg72
I0
sg73
I0
sg74
I1
sg75
I0
sg76
I0
sg77
I0
sg78
I1
sg79
I1
sg80
I0
sg81
I0
sg82
I0
sg83
I0
sg84
I0
sg85
I2
sg86
I1
sg87
I0
sg88
I0
sg89
I1
sg90
I0
sg91
I0
sg92
I0
sg93
I0
sg94
I0
sg95
I0
sg96
I0
sg97
I0
sg98
I0
sg99
I0
sg100
I0
sg101
I4
sg102
I0
sg103
I0
sg104
I0
sg105
I1
sg106
I0
sg107
I0
sg108
I4
sg109
I2
sg110
I0
sg111
I0
sg112
I0
sg113
I0
sg114
I0
sg115
I0
sg116
I0
sg117
I0
sg118
I0
sg119
I2
sg120
I0
sg121
I0
sg122
I8
sg123
I1
sg124
I0
sg125
I0
ssg10
(dp133
g1
I20
sg3
I2
sg4
I0
sg5
I0
sg6
I7
sg7
I3
sg8
I1
sg9
I0
sg10
I57
sg11
I1
sg12
I0
sg13
I0
sg14
I1
sg15
I8
sg16
I0
sg17
I13
sg18
I0
sg19
I0
sg20
I4
sg21
I1
sg22
I19
sg23
I0
sg24
I0
sg25
I11
sg26
I0
sg27
I103
sg28
I0
sg29
I0
sg30
I2
sg31
I6
sg32
I0
sg33
I11
sg34
I0
sg35
I1
sg36
I7
sg37
I0
sg38
I0
sg39
I1
sg40
I0
sg41
I8
sg42
I4
sg43
I7
sg44
I0
sg45
I0
sg46
I7
sg47
I0
sg48
I4
sg49
I3
sg50
I161
sg51
I11
sg52
I0
sg53
I5
sg54
I3
sg55
I4
sg56
I3
sg57
I12
sg58
I1
sg59
I3
sg60
I0
sg61
I0
sg62
I1
sg63
I9
sg64
I0
sg65
I0
sg66
I0
sg67
I0
sg68
I0
sg69
I3
sg70
I1
sg71
I0
sg72
I3
sg73
I0
sg74
I4
sg75
I0
sg76
I0
sg77
I0
sg78
I4
sg79
I1
sg80
I0
sg81
I0
sg82
I1
sg83
I0
sg84
I1
sg85
I6
sg86
I9
sg87
I1
sg88
I3
sg89
I2
sg90
I4
sg91
I0
sg92
I0
sg93
I1
sg94
I1
sg95
I0
sg96
I0
sg97
I2
sg98
I0
sg99
I0
sg100
I0
sg101
I14
sg102
I0
sg103
I3
sg104
I2
sg105
I5
sg106
I0
sg107
I0
sg108
I32
sg109
I8
sg110
I0
sg111
I0
sg112
I0
sg113
I0
sg114
I3
sg115
I0
sg116
I0
sg117
I3
sg118
I2
sg119
I3
sg120
I4
sg121
I0
sg122
I69
sg123
I5
sg124
I1
sg125
I0
ssg11
(dp134
g1
I59
sg3
I2
sg4
I2
sg5
I1
sg6
I16
sg7
I7
sg8
I0
sg9
I1
sg10
I0
sg11
I304
sg12
I0
sg13
I0
sg14
I3
sg15
I24
sg16
I1
sg17
I29
sg18
I2
sg19
I0
sg20
I15
sg21
I0
sg22
I53
sg23
I1
sg24
I0
sg25
I52
sg26
I0
sg27
I431
sg28
I5
sg29
I6
sg30
I4
sg31
I19
sg32
I1
sg33
I20
sg34
I0
sg35
I5
sg36
I28
sg37
I0
sg38
I0
sg39
I0
sg40
I1
sg41
I13
sg42
I15
sg43
I17
sg44
I1
sg45
I1
sg46
I31
sg47
I0
sg48
I2
sg49
I17
sg50
I504
sg51
I23
sg52
I8
sg53
I33
sg54
I7
sg55
I21
sg56
I14
sg57
I17
sg58
I1
sg59
I17
sg60
I6
sg61
I0
sg62
I6
sg63
I36
sg64
I2
sg65
I0
sg66
I1
sg67
I0
sg68
I0
sg69
I14
sg70
I3
sg71
I0
sg72
I13
sg73
I4
sg74
I22
sg75
I0
sg76
I3
sg77
I0
sg78
I21
sg79
I5
sg80
I0
sg81
I0
sg82
I7
sg83
I0
sg84
I1
sg85
I11
sg86
I30
sg87
I0
sg88
I2
sg89
I6
sg90
I13
sg91
I0
sg92
I0
sg93
I1
sg94
I3
sg95
I0
sg96
I0
sg97
I1
sg98
I2
sg99
I0
sg100
I0
sg101
I27
sg102
I0
sg103
I11
sg104
I3
sg105
I27
sg106
I0
sg107
I0
sg108
I95
sg109
I29
sg110
I0
sg111
I1
sg112
I0
sg113
I0
sg114
I2
sg115
I0
sg116
I3
sg117
I0
sg118
I1
sg119
I7
sg120
I13
sg121
I1
sg122
I147
sg123
I11
sg124
I2
sg125
I0
ssg12
(dp135
g1
I0
sg3
I0
sg4
I0
sg5
I0
sg6
I0
sg7
I0
sg8
I0
sg9
I0
sg10
I0
sg11
I0
sg12
I0
sg13
I0
sg14
I0
sg15
I0
sg16
I0
sg17
I0
sg18
I0
sg19
I0
sg20
I0
sg21
I0
sg22
I0
sg23
I0
sg24
I0
sg25
I0
sg26
I0
sg27
I0
sg28
I0
sg29
I0
sg30
I0
sg31
I0
sg32
I0
sg33
I0
sg34
I0
sg35
I0
sg36
I0
sg37
I0
sg38
I0
sg39
I0
sg40
I0
sg41
I0
sg42
I0
sg43
I0
sg44
I0
sg45
I0
sg46
I0
sg47
I0
sg48
I0
sg49
I0
sg50
I0
sg51
I0
sg52
I0
sg53
I0
sg54
I0
sg55
I0
sg56
I0
sg57
I0
sg58
I0
sg59
I0
sg60
I0
sg61
I0
sg62
I0
sg63
I0
sg64
I0
sg65
I0
sg66
I0
sg67
I0
sg68
I0
sg69
I0
sg70
I0
sg71
I0
sg72
I0
sg73
I0
sg74
I0
sg75
I0
sg76
I0
sg77
I0
sg78
I0
sg79
I0
sg80
I0
sg81
I0
sg82
I0
sg83
I0
sg84
I0
sg85
I0
sg86
I0
sg87
I0
sg88
I0
sg89
I0
sg90
I0
sg91
I0
sg92
I0
sg93
I0
sg94
I0
sg95
I0
sg96
I0
sg97
I0
sg98
I0
sg99
I0
sg100
I0
sg101
I0
sg102
I0
sg103
I0
sg104
I0
sg105
I0
sg106
I0
sg107
I0
sg108
I0
sg109
I0
sg110
I0
sg111
I0
sg112
I0
sg113
I0
sg114
I0
sg115
I0
sg116
I0
sg117
I0
sg118
I0
sg119
I0
sg120
I0
sg121
I0
sg122
I0
sg123
I0
sg124
I0
sg125
I0
ssg13
(dp136
g1
I99
sg3
I3
sg4
I1
sg5
I1
sg6
I3
sg7
I6
sg8
I1
sg9
I0
sg10
I1
sg11
I3
sg12
I0
sg13
I27
sg14
I2
sg15
I9
sg16
I0
sg17
I24
sg18
I1
sg19
I0
sg20
I28
sg21
I0
sg22
I12
sg23
I0
sg24
I0
sg25
I93
sg26
I0
sg27
I134
sg28
I4
sg29
I0
sg30
I7
sg31
I10
sg32
I0
sg33
I3
sg34
I0
sg35
I3
sg36
I16
sg37
I0
sg38
I0
sg39
I0
sg40
I0
sg41
I10
sg42
I9
sg43
I23
sg44
I3
sg45
I6
sg46
I6
sg47
I0
sg48
I10
sg49
I7
sg50
I757
sg51
I17
sg52
I4
sg53
I9
sg54
I3
sg55
I8
sg56
I6
sg57
I11
sg58
I1
sg59
I2
sg60
I5
sg61
I0
sg62
I7
sg63
I26
sg64
I0
sg65
I1
sg66
I0
sg67
I1
sg68
I0
sg69
I10
sg70
I0
sg71
I2
sg72
I8
sg73
I0
sg74
I5
sg75
I0
sg76
I2
sg77
I1
sg78
I7
sg79
I6
sg80
I0
sg81
I0
sg82
I5
sg83
I0
sg84
I0
sg85
I12
sg86
I9
sg87
I0
sg88
I1
sg89
I4
sg90
I8
sg91
I0
sg92
I0
sg93
I1
sg94
I1
sg95
I0
sg96
I0
sg97
I0
sg98
I4
sg99
I0
sg100
I0
sg101
I26
sg102
I0
sg103
I1
sg104
I0
sg105
I14
sg106
I0
sg107
I0
sg108
I63
sg109
I12
sg110
I0
sg111
I1
sg112
I0
sg113
I0
sg114
I4
sg115
I0
sg116
I1
sg117
I0
sg118
I0
sg119
I4
sg120
I3
sg121
I0
sg122
I128
sg123
I4
sg124
I0
sg125
I1
ssg14
(dp137
g1
I70
sg3
I10
sg4
I1
sg5
I2
sg6
I13
sg7
I4
sg8
I1
sg9
I0
sg10
I0
sg11
I2
sg12
I0
sg13
I0
sg14
I336
sg15
I34
sg16
I0
sg17
I38
sg18
I2
sg19
I0
sg20
I15
sg21
I0
sg22
I51
sg23
I2
sg24
I0
sg25
I60
sg26
I0
sg27
I486
sg28
I2
sg29
I3
sg30
I3
sg31
I23
sg32
I2
sg33
I6
sg34
I0
sg35
I6
sg36
I54
sg37
I0
sg38
I0
sg39
I0
sg40
I0
sg41
I16
sg42
I25
sg43
I24
sg44
I6
sg45
I2
sg46
I19
sg47
I0
sg48
I7
sg49
I12
sg50
I512
sg51
I37
sg52
I18
sg53
I28
sg54
I10
sg55
I18
sg56
I11
sg57
I25
sg58
I1
sg59
I10
sg60
I12
sg61
I2
sg62
I14
sg63
I30
sg64
I0
sg65
I0
sg66
I2
sg67
I0
sg68
I0
sg69
I11
sg70
I5
sg71
I1
sg72
I5
sg73
I9
sg74
I47
sg75
I0
sg76
I4
sg77
I0
sg78
I26
sg79
I5
sg80
I0
sg81
I1
sg82
I4
sg83
I0
sg84
I2
sg85
I21
sg86
I24
sg87
I1
sg88
I2
sg89
I3
sg90
I23
sg91
I0
sg92
I0
sg93
I0
sg94
I6
sg95
I0
sg96
I0
sg97
I3
sg98
I7
sg99
I0
sg100
I0
sg101
I39
sg102
I0
sg103
I10
sg104
I0
sg105
I36
sg106
I0
sg107
I1
sg108
I96
sg109
I33
sg110
I0
sg111
I2
sg112
I0
sg113
I0
sg114
I2
sg115
I0
sg116
I2
sg117
I0
sg118
I2
sg119
I3
sg120
I19
sg121
I0
sg122
I181
sg123
I8
sg124
I0
sg125
I0
ssg15
(dp138
g1
I1376
sg3
I113
sg4
I22
sg5
I9
sg6
I216
sg7
I178
sg8
I11
sg9
I8
sg10
I7
sg11
I36
sg12
I0
sg13
I7
sg14
I47
sg15
I5786
sg16
I0
sg17
I866
sg18
I21
sg19
I11
sg20
I241
sg21
I2
sg22
I624
sg23
I12
sg24
I0
sg25
I993
sg26
I1
sg27
I6528
sg28
I21
sg29
I53
sg30
I102
sg31
I341
sg32
I10
sg33
I173
sg34
I0
sg35
I147
sg36
I1065
sg37
I2
sg38
I0
sg39
I33
sg40
I0
sg41
I322
sg42
I291
sg43
I459
sg44
I49
sg45
I22
sg46
I412
sg47
I0
sg48
I187
sg49
I186
sg50
I10427
sg51
I685
sg52
I141
sg53
I629
sg54
I172
sg55
I386
sg56
I271
sg57
I409
sg58
I31
sg59
I141
sg60
I292
sg61
I7
sg62
I177
sg63
I627
sg64
I10
sg65
I5
sg66
I28
sg67
I0
sg68
I3
sg69
I349
sg70
I54
sg71
I13
sg72
I270
sg73
I130
sg74
I367
sg75
I23
sg76
I56
sg77
I13
sg78
I428
sg79
I89
sg80
I0
sg81
I5
sg82
I100
sg83
I0
sg84
I54
sg85
I389
sg86
I338
sg87
I29
sg88
I43
sg89
I124
sg90
I410
sg91
I0
sg92
I0
sg93
I48
sg94
I72
sg95
I15
sg96
I0
sg97
I80
sg98
I102
sg99
I7
sg100
I0
sg101
I758
sg102
I4
sg103
I121
sg104
I31
sg105
I693
sg106
I1
sg107
I9
sg108
I2370
sg109
I662
sg110
I0
sg111
I40
sg112
I0
sg113
I0
sg114
I67
sg115
I1
sg116
I14
sg117
I6
sg118
I17
sg119
I140
sg120
I146
sg121
I14
sg122
I4234
sg123
I196
sg124
I6
sg125
I3
ssg16
(dp139
g1
I0
sg3
I0
sg4
I0
sg5
I0
sg6
I0
sg7
I0
sg8
I0
sg9
I0
sg10
I0
sg11
I0
sg12
I0
sg13
I0
sg14
I0
sg15
I0
sg16
I0
sg17
I0
sg18
I0
sg19
I0
sg20
I0
sg21
I0
sg22
I0
sg23
I0
sg24
I0
sg25
I0
sg26
I0
sg27
I0
sg28
I0
sg29
I0
sg30
I0
sg31
I0
sg32
I0
sg33
I0
sg34
I0
sg35
I0
sg36
I0
sg37
I0
sg38
I0
sg39
I0
sg40
I0
sg41
I0
sg42
I0
sg43
I0
sg44
I0
sg45
I0
sg46
I0
sg47
I0
sg48
I0
sg49
I0
sg50
I0
sg51
I0
sg52
I0
sg53
I0
sg54
I0
sg55
I0
sg56
I0
sg57
I0
sg58
I0
sg59
I0
sg60
I0
sg61
I0
sg62
I0
sg63
I0
sg64
I0
sg65
I0
sg66
I0
sg67
I0
sg68
I0
sg69
I0
sg70
I0
sg71
I0
sg72
I0
sg73
I0
sg74
I0
sg75
I0
sg76
I0
sg77
I0
sg78
I0
sg79
I0
sg80
I0
sg81
I0
sg82
I0
sg83
I0
sg84
I0
sg85
I0
sg86
I0
sg87
I0
sg88
I0
sg89
I0
sg90
I0
sg91
I0
sg92
I0
sg93
I0
sg94
I0
sg95
I0
sg96
I0
sg97
I0
sg98
I0
sg99
I0
sg100
I0
sg101
I0
sg102
I0
sg103
I0
sg104
I0
sg105
I0
sg106
I0
sg107
I0
sg108
I0
sg109
I0
sg110
I0
sg111
I0
sg112
I0
sg113
I0
sg114
I0
sg115
I0
sg116
I0
sg117
I0
sg118
I0
sg119
I0
sg120
I0
sg121
I0
sg122
I0
sg123
I0
sg124
I0
sg125
I0
ssg17
(dp140
g1
I4585
sg3
I284
sg4
I57
sg5
I17
sg6
I637
sg7
I483
sg8
I45
sg9
I15
sg10
I38
sg11
I173
sg12
I1
sg13
I21
sg14
I104
sg15
I1511
sg16
I0
sg17
I12054
sg18
I60
sg19
I23
sg20
I800
sg21
I10
sg22
I1655
sg23
I49
sg24
I0
sg25
I3299
sg26
I1
sg27
I17470
sg28
I63
sg29
I135
sg30
I249
sg31
I1116
sg32
I34
sg33
I471
sg34
I0
sg35
I504
sg36
I2873
sg37
I5
sg38
I0
sg39
I70
sg40
I0
sg41
I1127
sg42
I829
sg43
I1173
sg44
I162
sg45
I50
sg46
I1137
sg47
I1
sg48
I511
sg49
I495
sg50
I32742
sg51
I2244
sg52
I391
sg53
I1784
sg54
I573
sg55
I1162
sg56
I735
sg57
I1414
sg58
I52
sg59
I451
sg60
I737
sg61
I54
sg62
I446
sg63
I1887
sg64
I40
sg65
I10
sg66
I77
sg67
I0
sg68
I3
sg69
I990
sg70
I142
sg71
I41
sg72
I938
sg73
I298
sg74
I1195
sg75
I56
sg76
I174
sg77
I25
sg78
I1512
sg79
I209
sg80
I2
sg81
I17
sg82
I317
sg83
I1
sg84
I213
sg85
I1283
sg86
I951
sg87
I100
sg88
I155
sg89
I377
sg90
I1385
sg91
I1
sg92
I2
sg93
I107
sg94
I169
sg95
I37
sg96
I0
sg97
I194
sg98
I230
sg99
I18
sg100
I2
sg101
I2038
sg102
I8
sg103
I295
sg104
I88
sg105
I2060
sg106
I3
sg107
I21
sg108
I6576
sg109
I1842
sg110
I0
sg111
I86
sg112
I1
sg113
I1
sg114
I257
sg115
I13
sg116
I46
sg117
I8
sg118
I69
sg119
I360
sg120
I469
sg121
I20
sg122
I13981
sg123
I500
sg124
I26
sg125
I4
ssg18
(dp141
g1
I8
sg3
I0
sg4
I0
sg5
I0
sg6
I2
sg7
I3
sg8
I0
sg9
I0
sg10
I0
sg11
I0
sg12
I0
sg13
I0
sg14
I1
sg15
I2
sg16
I0
sg17
I2
sg18
I145
sg19
I0
sg20
I3
sg21
I0
sg22
I4
sg23
I0
sg24
I0
sg25
I4
sg26
I0
sg27
I29
sg28
I0
sg29
I1
sg30
I0
sg31
I4
sg32
I0
sg33
I2
sg34
I0
sg35
I0
sg36
I8
sg37
I0
sg38
I0
sg39
I0
sg40
I0
sg41
I1
sg42
I0
sg43
I0
sg44
I0
sg45
I0
sg46
I1
sg47
I0
sg48
I0
sg49
I0
sg50
I69
sg51
I2
sg52
I2
sg53
I2
sg54
I0
sg55
I2
sg56
I2
sg57
I2
sg58
I0
sg59
I2
sg60
I2
sg61
I0
sg62
I3
sg63
I4
sg64
I0
sg65
I0
sg66
I0
sg67
I0
sg68
I0
sg69
I1
sg70
I0
sg71
I0
sg72
I2
sg73
I1
sg74
I2
sg75
I0
sg76
I1
sg77
I0
sg78
I0
sg79
I1
sg80
I0
sg81
I0
sg82
I0
sg83
I0
sg84
I0
sg85
I2
sg86
I2
sg87
I0
sg88
I0
sg89
I1
sg90
I3
sg91
I0
sg92
I0
sg93
I0
sg94
I0
sg95
I0
sg96
I0
sg97
I0
sg98
I0
sg99
I0
sg100
I0
sg101
I5
sg102
I0
sg103
I0
sg104
I0
sg105
I2
sg106
I0
sg107
I0
sg108
I6
sg109
I3
sg110
I0
sg111
I0
sg112
I0
sg113
I0
sg114
I0
sg115
I0
sg116
I0
sg117
I0
sg118
I0
sg119
I0
sg120
I2
sg121
I0
sg122
I23
sg123
I1
sg124
I0
sg125
I0
ssg19
(dp142
g1
I1
sg3
I3
sg4
I0
sg5
I1
sg6
I2
sg7
I0
sg8
I0
sg9
I0
sg10
I0
sg11
I0
sg12
I0
sg13
I0
sg14
I0
sg15
I4
sg16
I0
sg17
I1
sg18
I0
sg19
I59
sg20
I0
sg21
I0
sg22
I3
sg23
I0
sg24
I0
sg25
I1
sg26
I0
sg27
I28
sg28
I0
sg29
I1
sg30
I1
sg31
I1
sg32
I0
sg33
I1
sg34
I0
sg35
I0
sg36
I1
sg37
I0
sg38
I0
sg39
I0
sg40
I0
sg41
I0
sg42
I1
sg43
I1
sg44
I0
sg45
I0
sg46
I1
sg47
I0
sg48
I0
sg49
I0
sg50
I21
sg51
I2
sg52
I0
sg53
I1
sg54
I0
sg55
I4
sg56
I2
sg57
I1
sg58
I0
sg59
I2
sg60
I1
sg61
I0
sg62
I0
sg63
I0
sg64
I0
sg65
I0
sg66
I0
sg67
I0
sg68
I0
sg69
I0
sg70
I0
sg71
I0
sg72
I1
sg73
I0
sg74
I0
sg75
I0
sg76
I0
sg77
I0
sg78
I1
sg79
I0
sg80
I0
sg81
I0
sg82
I0
sg83
I0
sg84
I1
sg85
I2
sg86
I4
sg87
I0
sg88
I0
sg89
I0
sg90
I0
sg91
I0
sg92
I0
sg93
I0
sg94
I1
sg95
I0
sg96
I0
sg97
I0
sg98
I1
sg99
I0
sg100
I0
sg101
I3
sg102
I0
sg103
I0
sg104
I0
sg105
I1
sg106
I0
sg107
I0
sg108
I7
sg109
I2
sg110
I0
sg111
I0
sg112
I0
sg113
I0
sg114
I0
sg115
I0
sg116
I0
sg117
I0
sg118
I0
sg119
I0
sg120
I0
sg121
I0
sg122
I2
sg123
I1
sg124
I0
sg125
I0
ssg20
(dp143
g1
I1955
sg3
I70
sg4
I29
sg5
I5
sg6
I124
sg7
I174
sg8
I24
sg9
I10
sg10
I8
sg11
I29
sg12
I0
sg13
I4
sg14
I18
sg15
I335
sg16
I0
sg17
I653
sg18
I19
sg19
I4
sg20
I4182
sg21
I9
sg22
I360
sg23
I6
sg24
I0
sg25
I1786
sg26
I2
sg27
I3730
sg28
I16
sg29
I22
sg30
I72
sg31
I224
sg32
I4
sg33
I98
sg34
I0
sg35
I103
sg36
I584
sg37
I2
sg38
I0
sg39
I19
sg40
I0
sg41
I283
sg42
I297
sg43
I397
sg44
I24
sg45
I20
sg46
I237
sg47
I0
sg48
I115
sg49
I141
sg50
I14374
sg51
I555
sg52
I110
sg53
I416
sg54
I112
sg55
I264
sg56
I192
sg57
I288
sg58
I23
sg59
I128
sg60
I157
sg61
I4
sg62
I168
sg63
I557
sg64
I11
sg65
I13
sg66
I28
sg67
I0
sg68
I0
sg69
I257
sg70
I31
sg71
I17
sg72
I201
sg73
I64
sg74
I254
sg75
I19
sg76
I69
sg77
I7
sg78
I335
sg79
I76
sg80
I1
sg81
I8
sg82
I94
sg83
I0
sg84
I58
sg85
I296
sg86
I328
sg87
I21
sg88
I34
sg89
I75
sg90
I218
sg91
I0
sg92
I0
sg93
I31
sg94
I43
sg95
I5
sg96
I0
sg97
I67
sg98
I83
sg99
I4
sg100
I0
sg101
I355
sg102
I1
sg103
I81
sg104
I32
sg105
I516
sg106
I1
sg107
I7
sg108
I1470
sg109
I403
sg110
I0
sg111
I19
sg112
I1
sg113
I0
sg114
I57
sg115
I3
sg116
I14
sg117
I10
sg118
I15
sg119
I154
sg120
I97
sg121
I6
sg122
I3561
sg123
I109
sg124
I9
sg125
I6
ssg21
(dp144
g1
I7
sg3
I0
sg4
I0
sg5
I0
sg6
I1
sg7
I0
sg8
I0
sg9
I0
sg10
I0
sg11
I1
sg12
I0
sg13
I0
sg14
I1
sg15
I1
sg16
I0
sg17
I0
sg18
I0
sg19
I0
sg20
I0
sg21
I14
sg22
I3
sg23
I0
sg24
I0
sg25
I2
sg26
I0
sg27
I26
sg28
I0
sg29
I0
sg30
I0
sg31
I1
sg32
I0
sg33
I0
sg34
I0
sg35
I0
sg36
I1
sg37
I0
sg38
I0
sg39
I0
sg40
I0
sg41
I0
sg42
I0
sg43
I1
sg44
I0
sg45
I2
sg46
I0
sg47
I0
sg48
I0
sg49
I2
sg50
I12
sg51
I0
sg52
I0
sg53
I1
sg54
I0
sg55
I0
sg56
I1
sg57
I4
sg58
I0
sg59
I2
sg60
I0
sg61
I0
sg62
I0
sg63
I1
sg64
I0
sg65
I0
sg66
I0
sg67
I0
sg68
I0
sg69
I0
sg70
I0
sg71
I0
sg72
I1
sg73
I0
sg74
I1
sg75
I0
sg76
I0
sg77
I0
sg78
I0
sg79
I1
sg80
I0
sg81
I0
sg82
I0
sg83
I0
sg84
I0
sg85
I0
sg86
I2
sg87
I0
sg88
I0
sg89
I0
sg90
I1
sg91
I0
sg92
I0
sg93
I0
sg94
I0
sg95
I0
sg96
I0
sg97
I0
sg98
I0
sg99
I0
sg100
I0
sg101
I0
sg102
I0
sg103
I1
sg104
I0
sg105
I1
sg106
I0
sg107
I0
sg108
I2
sg109
I1
sg110
I0
sg111
I0
sg112
I0
sg113
I0
sg114
I0
sg115
I0
sg116
I0
sg117
I0
sg118
I0
sg119
I0
sg120
I1
sg121
I0
sg122
I5
sg123
I0
sg124
I0
sg125
I0
ssg22
(dp145
g1
I767
sg3
I38
sg4
I28
sg5
I5
sg6
I319
sg7
I85
sg8
I8
sg9
I3
sg10
I16
sg11
I40
sg12
I1
sg13
I15
sg14
I43
sg15
I336
sg16
I0
sg17
I498
sg18
I10
sg19
I8
sg20
I182
sg21
I13
sg22
I4925
sg23
I12
sg24
I0
sg25
I731
sg26
I0
sg27
I8596
sg28
I26
sg29
I80
sg30
I68
sg31
I272
sg32
I26
sg33
I309
sg34
I0
sg35
I89
sg36
I458
sg37
I0
sg38
I1
sg39
I13
sg40
I0
sg41
I166
sg42
I241
sg43
I273
sg44
I35
sg45
I10
sg46
I233
sg47
I2
sg48
I81
sg49
I249
sg50
I5884
sg51
I374
sg52
I131
sg53
I278
sg54
I128
sg55
I244
sg56
I164
sg57
I317
sg58
I21
sg59
I172
sg60
I115
sg61
I13
sg62
I117
sg63
I316
sg64
I13
sg65
I3
sg66
I14
sg67
I0
sg68
I0
sg69
I217
sg70
I55
sg71
I10
sg72
I143
sg73
I58
sg74
I367
sg75
I15
sg76
I38
sg77
I10
sg78
I216
sg79
I78
sg80
I4
sg81
I12
sg82
I70
sg83
I0
sg84
I58
sg85
I225
sg86
I426
sg87
I35
sg88
I37
sg89
I48
sg90
I162
sg91
I0
sg92
I1
sg93
I13
sg94
I61
sg95
I17
sg96
I0
sg97
I47
sg98
I73
sg99
I2
sg100
I2
sg101
I454
sg102
I3
sg103
I221
sg104
I23
sg105
I393
sg106
I1
sg107
I8
sg108
I1000
sg109
I294
sg110
I0
sg111
I26
sg112
I0
sg113
I1
sg114
I52
sg115
I0
sg116
I22
sg117
I5
sg118
I37
sg119
I81
sg120
I144
sg121
I3
sg122
I2520
sg123
I136
sg124
I1
sg125
I7
ssg23
(dp146
g1
I25
sg3
I0
sg4
I2
sg5
I0
sg6
I6
sg7
I5
sg8
I0
sg9
I0
sg10
I0
sg11
I0
sg12
I0
sg13
I0
sg14
I1
sg15
I4
sg16
I1
sg17
I23
sg18
I1
sg19
I0
sg20
I3
sg21
I0
sg22
I12
sg23
I49
sg24
I0
sg25
I19
sg26
I0
sg27
I130
sg28
I1
sg29
I2
sg30
I0
sg31
I11
sg32
I0
sg33
I4
sg34
I0
sg35
I1
sg36
I16
sg37
I0
sg38
I0
sg39
I1
sg40
I0
sg41
I5
sg42
I2
sg43
I5
sg44
I0
sg45
I0
sg46
I4
sg47
I0
sg48
I2
sg49
I8
sg50
I175
sg51
I9
sg52
I2
sg53
I4
sg54
I3
sg55
I8
sg56
I9
sg57
I8
sg58
I0
sg59
I5
sg60
I5
sg61
I0
sg62
I4
sg63
I8
sg64
I0
sg65
I0
sg66
I1
sg67
I0
sg68
I0
sg69
I3
sg70
I2
sg71
I0
sg72
I3
sg73
I0
sg74
I9
sg75
I2
sg76
I1
sg77
I0
sg78
I7
sg79
I3
sg80
I0
sg81
I1
sg82
I1
sg83
I0
sg84
I1
sg85
I14
sg86
I5
sg87
I1
sg88
I1
sg89
I0
sg90
I7
sg91
I0
sg92
I0
sg93
I0
sg94
I1
sg95
I0
sg96
I0
sg97
I3
sg98
I3
sg99
I0
sg100
I0
sg101
I13
sg102
I1
sg103
I2
sg104
I2
sg105
I10
sg106
I0
sg107
I1
sg108
I30
sg109
I6
sg110
I0
sg111
I1
sg112
I0
sg113
I0
sg114
I5
sg115
I0
sg116
I0
sg117
I1
sg118
I0
sg119
I1
sg120
I6
sg121
I0
sg122
I96
sg123
I4
sg124
I0
sg125
I0
ssg24
(dp147
g1
I0
sg3
I0
sg4
I0
sg5
I0
sg6
I0
sg7
I0
sg8
I0
sg9
I0
sg10
I0
sg11
I0
sg12
I0
sg13
I0
sg14
I0
sg15
I0
sg16
I0
sg17
I0
sg18
I0
sg19
I0
sg20
I0
sg21
I0
sg22
I0
sg23
I0
sg24
I0
sg25
I0
sg26
I0
sg27
I0
sg28
I0
sg29
I0
sg30
I0
sg31
I0
sg32
I0
sg33
I0
sg34
I0
sg35
I0
sg36
I0
sg37
I0
sg38
I0
sg39
I0
sg40
I0
sg41
I0
sg42
I0
sg43
I0
sg44
I0
sg45
I0
sg46
I0
sg47
I0
sg48
I0
sg49
I0
sg50
I0
sg51
I0
sg52
I0
sg53
I0
sg54
I0
sg55
I0
sg56
I0
sg57
I0
sg58
I0
sg59
I0
sg60
I0
sg61
I0
sg62
I0
sg63
I0
sg64
I0
sg65
I0
sg66
I0
sg67
I0
sg68
I0
sg69
I0
sg70
I0
sg71
I0
sg72
I0
sg73
I0
sg74
I0
sg75
I0
sg76
I0
sg77
I0
sg78
I0
sg79
I0
sg80
I0
sg81
I0
sg82
I0
sg83
I0
sg84
I0
sg85
I0
sg86
I0
sg87
I0
sg88
I0
sg89
I0
sg90
I0
sg91
I0
sg92
I0
sg93
I0
sg94
I0
sg95
I0
sg96
I0
sg97
I0
sg98
I0
sg99
I0
sg100
I0
sg101
I0
sg102
I0
sg103
I0
sg104
I0
sg105
I0
sg106
I0
sg107
I0
sg108
I0
sg109
I0
sg110
I0
sg111
I0
sg112
I0
sg113
I0
sg114
I0
sg115
I0
sg116
I0
sg117
I0
sg118
I0
sg119
I0
sg120
I0
sg121
I0
sg122
I0
sg123
I0
sg124
I0
sg125
I0
ssg25
(dp148
g1
I6550
sg3
I250
sg4
I128
sg5
I25
sg6
I716
sg7
I633
sg8
I80
sg9
I17
sg10
I28
sg11
I137
sg12
I3
sg13
I34
sg14
I92
sg15
I1175
sg16
I3
sg17
I2240
sg18
I93
sg19
I24
sg20
I1701
sg21
I14
sg22
I1515
sg23
I25
sg24
I0
sg25
I21083
sg26
I2
sg27
I17555
sg28
I59
sg29
I138
sg30
I311
sg31
I840
sg32
I20
sg33
I449
sg34
I1
sg35
I378
sg36
I2183
sg37
I8
sg38
I1
sg39
I102
sg40
I0
sg41
I1026
sg42
I1231
sg43
I1742
sg44
I119
sg45
I76
sg46
I897
sg47
I1
sg48
I468
sg49
I628
sg50
I49649
sg51
I2001
sg52
I466
sg53
I1693
sg54
I415
sg55
I940
sg56
I723
sg57
I1241
sg58
I57
sg59
I638
sg60
I672
sg61
I36
sg62
I721
sg63
I1870
sg64
I27
sg65
I19
sg66
I100
sg67
I0
sg68
I2
sg69
I1005
sg70
I142
sg71
I50
sg72
I721
sg73
I286
sg74
I864
sg75
I41
sg76
I213
sg77
I34
sg78
I1120
sg79
I309
sg80
I2
sg81
I17
sg82
I449
sg83
I1
sg84
I147
sg85
I1177
sg86
I1297
sg87
I111
sg88
I98
sg89
I270
sg90
I1147
sg91
I3
sg92
I0
sg93
I114
sg94
I149
sg95
I34
sg96
I0
sg97
I259
sg98
I295
sg99
I27
sg100
I3
sg101
I1540
sg102
I12
sg103
I306
sg104
I99
sg105
I2020
sg106
I4
sg107
I15
sg108
I5579
sg109
I1490
sg110
I0
sg111
I76
sg112
I3
sg113
I2
sg114
I214
sg115
I2
sg116
I51
sg117
I13
sg118
I73
sg119
I547
sg120
I452
sg121
I21
sg122
I13250
sg123
I425
sg124
I40
sg125
I12
ssg26
(dp149
g1
I0
sg3
I0
sg4
I0
sg5
I0
sg6
I0
sg7
I0
sg8
I0
sg9
I0
sg10
I0
sg11
I0
sg12
I0
sg13
I0
sg14
I0
sg15
I0
sg16
I0
sg17
I0
sg18
I0
sg19
I0
sg20
I0
sg21
I0
sg22
I0
sg23
I0
sg24
I0
sg25
I0
sg26
I0
sg27
I1
sg28
I0
sg29
I0
sg30
I0
sg31
I0
sg32
I0
sg33
I0
sg34
I0
sg35
I0
sg36
I0
sg37
I0
sg38
I0
sg39
I0
sg40
I0
sg41
I0
sg42
I0
sg43
I0
sg44
I0
sg45
I0
sg46
I0
sg47
I0
sg48
I0
sg49
I0
sg50
I1
sg51
I0
sg52
I0
sg53
I0
sg54
I0
sg55
I0
sg56
I0
sg57
I0
sg58
I0
sg59
I0
sg60
I0
sg61
I0
sg62
I0
sg63
I0
sg64
I0
sg65
I0
sg66
I0
sg67
I0
sg68
I0
sg69
I0
sg70
I0
sg71
I0
sg72
I0
sg73
I0
sg74
I0
sg75
I0
sg76
I0
sg77
I0
sg78
I0
sg79
I0
sg80
I0
sg81
I0
sg82
I0
sg83
I0
sg84
I0
sg85
I0
sg86
I0
sg87
I0
sg88
I0
sg89
I0
sg90
I0
sg91
I0
sg92
I0
sg93
I0
sg94
I0
sg95
I0
sg96
I0
sg97
I0
sg98
I0
sg99
I0
sg100
I0
sg101
I0
sg102
I0
sg103
I0
sg104
I0
sg105
I0
sg106
I0
sg107
I0
sg108
I0
sg109
I0
sg110
I0
sg111
I0
sg112
I0
sg113
I0
sg114
I0
sg115
I0
sg116
I0
sg117
I0
sg118
I0
sg119
I0
sg120
I0
sg121
I0
sg122
I0
sg123
I0
sg124
I0
sg125
I0
ssg27
(dp150
g1
I9742
sg3
I811
sg4
I470
sg5
I85
sg6
I4537
sg7
I1097
sg8
I101
sg9
I82
sg10
I146
sg11
I491
sg12
I2
sg13
I75
sg14
I506
sg15
I4214
sg16
I7
sg17
I6106
sg18
I129
sg19
I78
sg20
I2208
sg21
I35
sg22
I10704
sg23
I113
sg24
I0
sg25
I10112
sg26
I5
sg27
I160169
sg28
I316
sg29
I763
sg30
I1066
sg31
I3320
sg32
I216
sg33
I3589
sg34
I3
sg35
I972
sg36
I6990
sg37
I12
sg38
I7
sg39
I248
sg40
I4
sg41
I1944
sg42
I3388
sg43
I4651
sg44
I455
sg45
I122
sg46
I3270
sg47
I8
sg48
I1104
sg49
I3343
sg50
I73133
sg51
I4307
sg52
I1906
sg53
I4155
sg54
I1336
sg55
I3015
sg56
I1893
sg57
I3410
sg58
I248
sg59
I2671
sg60
I1387
sg61
I156
sg62
I1450
sg63
I4067
sg64
I147
sg65
I49
sg66
I213
sg67
I3
sg68
I8
sg69
I2566
sg70
I648
sg71
I102
sg72
I1840
sg73
I792
sg74
I4387
sg75
I148
sg76
I428
sg77
I65
sg78
I2663
sg79
I921
sg80
I19
sg81
I75
sg82
I1171
sg83
I0
sg84
I528
sg85
I2524
sg86
I5187
sg87
I300
sg88
I544
sg89
I791
sg90
I2450
sg91
I0
sg92
I3
sg93
I252
sg94
I857
sg95
I232
sg96
I0
sg97
I624
sg98
I979
sg99
I47
sg100
I4
sg101
I5534
sg102
I24
sg103
I2178
sg104
I304
sg105
I4714
sg106
I14
sg107
I57
sg108
I13863
sg109
I4003
sg110
I0
sg111
I310
sg112
I5
sg113
I0
sg114
I519
sg115
I5
sg116
I182
sg117
I54
sg118
I584
sg119
I1076
sg120
I1656
sg121
I61
sg122
I28812
sg123
I1598
sg124
I47
sg125
I39
ssg28
(dp151
g1
I31
sg3
I5
sg4
I2
sg5
I0
sg6
I12
sg7
I1
sg8
I0
sg9
I0
sg10
I0
sg11
I2
sg12
I0
sg13
I0
sg14
I1
sg15
I12
sg16
I0
sg17
I13
sg18
I0
sg19
I0
sg20
I11
sg21
I0
sg22
I38
sg23
I0
sg24
I0
sg25
I43
sg26
I0
sg27
I233
sg28
I151
sg29
I1
sg30
I4
sg31
I16
sg32
I1
sg33
I5
sg34
I0
sg35
I5
sg36
I14
sg37
I0
sg38
I0
sg39
I3
sg40
I0
sg41
I3
sg42
I10
sg43
I6
sg44
I2
sg45
I0
sg46
I8
sg47
I0
sg48
I4
sg49
I12
sg50
I241
sg51
I19
sg52
I2
sg53
I16
sg54
I5
sg55
I7
sg56
I5
sg57
I22
sg58
I0
sg59
I9
sg60
I4
sg61
I0
sg62
I4
sg63
I12
sg64
I0
sg65
I0
sg66
I0
sg67
I0
sg68
I0
sg69
I9
sg70
I2
sg71
I0
sg72
I7
sg73
I6
sg74
I22
sg75
I2
sg76
I2
sg77
I0
sg78
I17
sg79
I4
sg80
I0
sg81
I1
sg82
I3
sg83
I0
sg84
I2
sg85
I9
sg86
I19
sg87
I0
sg88
I0
sg89
I5
sg90
I7
sg91
I0
sg92
I0
sg93
I1
sg94
I1
sg95
I0
sg96
I0
sg97
I3
sg98
I1
sg99
I0
sg100
I0
sg101
I21
sg102
I0
sg103
I6
sg104
I2
sg105
I17
sg106
I0
sg107
I0
sg108
I44
sg109
I14
sg110
I0
sg111
I0
sg112
I0
sg113
I0
sg114
I2
sg115
I0
sg116
I1
sg117
I1
sg118
I1
sg119
I4
sg120
I10
sg121
I1
sg122
I122
sg123
I4
sg124
I1
sg125
I0
ssg29
(dp152
g1
I38
sg3
I4
sg4
I0
sg5
I0
sg6
I15
sg7
I9
sg8
I1
sg9
I0
sg10
I0
sg11
I1
sg12
I0
sg13
I0
sg14
I1
sg15
I22
sg16
I0
sg17
I18
sg18
I1
sg19
I2
sg20
I8
sg21
I0
sg22
I14
sg23
I0
sg24
I0
sg25
I43
sg26
I0
sg27
I265
sg28
I2
sg29
I287
sg30
I3
sg31
I11
sg32
I0
sg33
I11
sg34
I0
sg35
I3
sg36
I18
sg37
I0
sg38
I0
sg39
I0
sg40
I0
sg41
I10
sg42
I13
sg43
I9
sg44
I0
sg45
I1
sg46
I15
sg47
I0
sg48
I1
sg49
I13
sg50
I325
sg51
I13
sg52
I6
sg53
I18
sg54
I3
sg55
I7
sg56
I5
sg57
I12
sg58
I3
sg59
I5
sg60
I6
sg61
I0
sg62
I3
sg63
I19
sg64
I0
sg65
I0
sg66
I0
sg67
I0
sg68
I0
sg69
I7
sg70
I4
sg71
I3
sg72
I8
sg73
I4
sg74
I14
sg75
I0
sg76
I1
sg77
I1
sg78
I9
sg79
I5
sg80
I0
sg81
I1
sg82
I3
sg83
I0
sg84
I1
sg85
I9
sg86
I18
sg87
I2
sg88
I1
sg89
I1
sg90
I9
sg91
I0
sg92
I1
sg93
I0
sg94
I1
sg95
I1
sg96
I0
sg97
I4
sg98
I2
sg99
I0
sg100
I0
sg101
I13
sg102
I0
sg103
I7
sg104
I2
sg105
I15
sg106
I0
sg107
I1
sg108
I47
sg109
I14
sg110
I0
sg111
I1
sg112
I0
sg113
I0
sg114
I1
sg115
I0
sg116
I1
sg117
I0
sg118
I0
sg119
I5
sg120
I4
sg121
I0
sg122
I128
sg123
I2
sg124
I1
sg125
I0
ssg30
(dp153
g1
I151
sg3
I8
sg4
I2
sg5
I1
sg6
I18
sg7
I17
sg8
I2
sg9
I0
sg10
I2
sg11
I1
sg12
I1
sg13
I1
sg14
I3
sg15
I64
sg16
I0
sg17
I88
sg18
I1
sg19
I1
sg20
I35
sg21
I0
sg22
I54
sg23
I1
sg24
I0
sg25
I168
sg26
I0
sg27
I820
sg28
I1
sg29
I11
sg30
I590
sg31
I25
sg32
I1
sg33
I23
sg34
I0
sg35
I18
sg36
I102
sg37
I0
sg38
I0
sg39
I2
sg40
I0
sg41
I28
sg42
I61
sg43
I113
sg44
I2
sg45
I2
sg46
I36
sg47
I0
sg48
I11
sg49
I19
sg50
I1245
sg51
I54
sg52
I23
sg53
I67
sg54
I14
sg55
I39
sg56
I20
sg57
I27
sg58
I2
sg59
I19
sg60
I26
sg61
I0
sg62
I36
sg63
I53
sg64
I1
sg65
I0
sg66
I2
sg67
I0
sg68
I0
sg69
I22
sg70
I7
sg71
I3
sg72
I32
sg73
I12
sg74
I30
sg75
I4
sg76
I10
sg77
I1
sg78
I40
sg79
I16
sg80
I0
sg81
I1
sg82
I16
sg83
I0
sg84
I4
sg85
I28
sg86
I32
sg87
I3
sg88
I4
sg89
I8
sg90
I36
sg91
I0
sg92
I0
sg93
I1
sg94
I3
sg95
I1
sg96
I0
sg97
I13
sg98
I31
sg99
I1
sg100
I0
sg101
I51
sg102
I0
sg103
I7
sg104
I4
sg105
I59
sg106
I1
sg107
I0
sg108
I218
sg109
I54
sg110
I0
sg111
I2
sg112
I0
sg113
I0
sg114
I5
sg115
I0
sg116
I3
sg117
I0
sg118
I6
sg119
I24
sg120
I17
sg121
I0
sg122
I360
sg123
I24
sg124
I1
sg125
I0
ssg31
(dp154
g1
I568
sg3
I35
sg4
I13
sg5
I5
sg6
I124
sg7
I56
sg8
I4
sg9
I3
sg10
I4
sg11
I23
sg12
I0
sg13
I3
sg14
I22
sg15
I183
sg16
I0
sg17
I330
sg18
I5
sg19
I1
sg20
I104
sg21
I3
sg22
I325
sg23
I2
sg24
I0
sg25
I448
sg26
I1
sg27
I3060
sg28
I16
sg29
I31
sg30
I50
sg31
I2376
sg32
I5
sg33
I100
sg34
I0
sg35
I49
sg36
I348
sg37
I0
sg38
I0
sg39
I9
sg40
I0
sg41
I153
sg42
I113
sg43
I158
sg44
I17
sg45
I9
sg46
I166
sg47
I0
sg48
I53
sg49
I85
sg50
I3981
sg51
I249
sg52
I65
sg53
I216
sg54
I83
sg55
I137
sg56
I104
sg57
I181
sg58
I9
sg59
I78
sg60
I76
sg61
I5
sg62
I54
sg63
I211
sg64
I5
sg65
I0
sg66
I16
sg67
I0
sg68
I0
sg69
I135
sg70
I19
sg71
I9
sg72
I106
sg73
I38
sg74
I198
sg75
I8
sg76
I19
sg77
I5
sg78
I171
sg79
I36
sg80
I1
sg81
I5
sg82
I43
sg83
I0
sg84
I34
sg85
I149
sg86
I153
sg87
I21
sg88
I16
sg89
I44
sg90
I126
sg91
I0
sg92
I0
sg93
I8
sg94
I31
sg95
I7
sg96
I0
sg97
I36
sg98
I38
sg99
I1
sg100
I0
sg101
I263
sg102
I0
sg103
I46
sg104
I15
sg105
I240
sg106
I0
sg107
I1
sg108
I762
sg109
I242
sg110
I0
sg111
I19
sg112
I0
sg113
I0
sg114
I20
sg115
I1
sg116
I15
sg117
I1
sg118
I19
sg119
I43
sg120
I95
sg121
I5
sg122
I1626
sg123
I72
sg124
I0
sg125
I1
ssg32
(dp155
g1
I6
sg3
I0
sg4
I1
sg5
I0
sg6
I10
sg7
I1
sg8
I0
sg9
I0
sg10
I0
sg11
I0
sg12
I0
sg13
I0
sg14
I0
sg15
I4
sg16
I0
sg17
I5
sg18
I0
sg19
I0
sg20
I2
sg21
I0
sg22
I16
sg23
I0
sg24
I0
sg25
I12
sg26
I0
sg27
I75
sg28
I1
sg29
I2
sg30
I0
sg31
I0
sg32
I60
sg33
I4
sg34
I0
sg35
I1
sg36
I4
sg37
I0
sg38
I0
sg39
I1
sg40
I0
sg41
I1
sg42
I2
sg43
I0
sg44
I0
sg45
I0
sg46
I3
sg47
I0
sg48
I1
sg49
I12
sg50
I42
sg51
I1
sg52
I1
sg53
I2
sg54
I0
sg55
I1
sg56
I2
sg57
I3
sg58
I1
sg59
I1
sg60
I1
sg61
I0
sg62
I0
sg63
I1
sg64
I0
sg65
I0
sg66
I0
sg67
I0
sg68
I0
sg69
I3
sg70
I2
sg71
I0
sg72
I0
sg73
I1
sg74
I8
sg75
I0
sg76
I0
sg77
I0
sg78
I0
sg79
I0
sg80
I0
sg81
I1
sg82
I0
sg83
I0
sg84
I0
sg85
I1
sg86
I10
sg87
I1
sg88
I1
sg89
I1
sg90
I3
sg91
I0
sg92
I0
sg93
I0
sg94
I0
sg95
I0
sg96
I0
sg97
I0
sg98
I0
sg99
I0
sg100
I0
sg101
I6
sg102
I0
sg103
I4
sg104
I0
sg105
I2
sg106
I0
sg107
I0
sg108
I9
sg109
I0
sg110
I0
sg111
I0
sg112
I0
sg113
I0
sg114
I2
sg115
I0
sg116
I0
sg117
I0
sg118
I0
sg119
I4
sg120
I1
sg121
I0
sg122
I20
sg123
I4
sg124
I0
sg125
I0
ssg33
(dp156
g1
I488
sg3
I29
sg4
I21
sg5
I5
sg6
I187
sg7
I52
sg8
I5
sg9
I4
sg10
I12
sg11
I16
sg12
I0
sg13
I1
sg14
I12
sg15
I170
sg16
I1
sg17
I256
sg18
I2
sg19
I3
sg20
I101
sg21
I1
sg22
I444
sg23
I7
sg24
I0
sg25
I342
sg26
I0
sg27
I3954
sg28
I6
sg29
I31
sg30
I46
sg31
I135
sg32
I11
sg33
I1662
sg34
I0
sg35
I41
sg36
I281
sg37
I0
sg38
I2
sg39
I10
sg40
I0
sg41
I100
sg42
I132
sg43
I163
sg44
I24
sg45
I7
sg46
I135
sg47
I0
sg48
I49
sg49
I188
sg50
I3317
sg51
I173
sg52
I96
sg53
I158
sg54
I54
sg55
I131
sg56
I88
sg57
I127
sg58
I10
sg59
I111
sg60
I58
sg61
I7
sg62
I62
sg63
I222
sg64
I4
sg65
I2
sg66
I17
sg67
I0
sg68
I1
sg69
I109
sg70
I42
sg71
I12
sg72
I73
sg73
I39
sg74
I248
sg75
I13
sg76
I31
sg77
I3
sg78
I144
sg79
I51
sg80
I3
sg81
I3
sg82
I33
sg83
I0
sg84
I26
sg85
I100
sg86
I254
sg87
I12
sg88
I26
sg89
I30
sg90
I92
sg91
I0
sg92
I0
sg93
I10
sg94
I26
sg95
I3
sg96
I0
sg97
I31
sg98
I44
sg99
I2
sg100
I0
sg101
I227
sg102
I1
sg103
I107
sg104
I10
sg105
I172
sg106
I1
sg107
I5
sg108
I594
sg109
I156
sg110
I0
sg111
I12
sg112
I0
sg113
I0
sg114
I24
sg115
I1
sg116
I10
sg117
I3
sg118
I36
sg119
I76
sg120
I83
sg121
I2
sg122
I1234
sg123
I67
sg124
I2
sg125
I1
ssg34
(dp157
g1
I0
sg3
I0
sg4
I0
sg5
I0
sg6
I0
sg7
I0
sg8
I0
sg9
I0
sg10
I0
sg11
I0
sg12
I0
sg13
I0
sg14
I0
sg15
I0
sg16
I0
sg17
I0
sg18
I0
sg19
I0
sg20
I0
sg21
I0
sg22
I0
sg23
I0
sg24
I0
sg25
I0
sg26
I0
sg27
I0
sg28
I0
sg29
I0
sg30
I0
sg31
I0
sg32
I0
sg33
I0
sg34
I0
sg35
I0
sg36
I0
sg37
I0
sg38
I0
sg39
I0
sg40
I0
sg41
I0
sg42
I0
sg43
I0
sg44
I0
sg45
I0
sg46
I0
sg47
I0
sg48
I0
sg49
I0
sg50
I0
sg51
I0
sg52
I0
sg53
I0
sg54
I0
sg55
I0
sg56
I0
sg57
I0
sg58
I0
sg59
I0
sg60
I0
sg61
I0
sg62
I0
sg63
I0
sg64
I0
sg65
I0
sg66
I0
sg67
I0
sg68
I0
sg69
I0
sg70
I0
sg71
I0
sg72
I0
sg73
I0
sg74
I0
sg75
I0
sg76
I0
sg77
I0
sg78
I0
sg79
I0
sg80
I0
sg81
I0
sg82
I0
sg83
I0
sg84
I0
sg85
I0
sg86
I0
sg87
I0
sg88
I0
sg89
I0
sg90
I0
sg91
I0
sg92
I0
sg93
I0
sg94
I0
sg95
I0
sg96
I0
sg97
I0
sg98
I0
sg99
I0
sg100
I0
sg101
I0
sg102
I0
sg103
I0
sg104
I0
sg105
I0
sg106
I0
sg107
I0
sg108
I0
sg109
I0
sg110
I0
sg111
I0
sg112
I0
sg113
I0
sg114
I0
sg115
I0
sg116
I0
sg117
I0
sg118
I0
sg119
I0
sg120
I0
sg121
I0
sg122
I0
sg123
I0
sg124
I0
sg125
I0
ssg35
(dp158
g1
I599
sg3
I54
sg4
I8
sg5
I0
sg6
I80
sg7
I69
sg8
I3
sg9
I2
sg10
I6
sg11
I17
sg12
I0
sg13
I3
sg14
I19
sg15
I226
sg16
I0
sg17
I317
sg18
I5
sg19
I3
sg20
I102
sg21
I2
sg22
I201
sg23
I6
sg24
I0
sg25
I407
sg26
I0
sg27
I2268
sg28
I7
sg29
I20
sg30
I49
sg31
I130
sg32
I4
sg33
I74
sg34
I0
sg35
I1647
sg36
I417
sg37
I0
sg38
I1
sg39
I13
sg40
I0
sg41
I145
sg42
I113
sg43
I208
sg44
I15
sg45
I5
sg46
I169
sg47
I0
sg48
I57
sg49
I84
sg50
I4135
sg51
I276
sg52
I52
sg53
I278
sg54
I79
sg55
I155
sg56
I99
sg57
I151
sg58
I3
sg59
I58
sg60
I104
sg61
I6
sg62
I69
sg63
I245
sg64
I7
sg65
I0
sg66
I8
sg67
I0
sg68
I0
sg69
I131
sg70
I20
sg71
I4
sg72
I113
sg73
I44
sg74
I149
sg75
I12
sg76
I29
sg77
I1
sg78
I157
sg79
I34
sg80
I0
sg81
I0
sg82
I48
sg83
I0
sg84
I16
sg85
I154
sg86
I122
sg87
I9
sg88
I23
sg89
I45
sg90
I194
sg91
I0
sg92
I0
sg93
I16
sg94
I13
sg95
I10
sg96
I0
sg97
I36
sg98
I43
sg99
I2
sg100
I0
sg101
I273
sg102
I0
sg103
I48
sg104
I19
sg105
I261
sg106
I1
sg107
I2
sg108
I978
sg109
I249
sg110
I0
sg111
I8
sg112
I0
sg113
I0
sg114
I30
sg115
I1
sg116
I4
sg117
I2
sg118
I15
sg119
I43
sg120
I53
sg121
I1
sg122
I1696
sg123
I67
sg124
I2
sg125
I1
ssg36
(dp159
g1
I4655
sg3
I299
sg4
I77
sg5
I24
sg6
I703
sg7
I593
sg8
I51
sg9
I16
sg10
I24
sg11
I142
sg12
I0
sg13
I22
sg14
I112
sg15
I1854
sg16
I1
sg17
I2826
sg18
I49
sg19
I20
sg20
I740
sg21
I4
sg22
I1574
sg23
I23
sg24
I0
sg25
I3225
sg26
I1
sg27
I19115
sg28
I57
sg29
I186
sg30
I342
sg31
I957
sg32
I19
sg33
I515
sg34
I0
sg35
I503
sg36
I14331
sg37
I4
sg38
I1
sg39
I73
sg40
I0
sg41
I1022
sg42
I1031
sg43
I1847
sg44
I200
sg45
I36
sg46
I1303
sg47
I3
sg48
I605
sg49
I509
sg50
I33551
sg51
I2244
sg52
I427
sg53
I2215
sg54
I537
sg55
I1214
sg56
I830
sg57
I1126
sg58
I86
sg59
I380
sg60
I876
sg61
I34
sg62
I553
sg63
I2008
sg64
I36
sg65
I9
sg66
I62
sg67
I0
sg68
I2
sg69
I1157
sg70
I131
sg71
I40
sg72
I1008
sg73
I381
sg74
I952
sg75
I68
sg76
I191
sg77
I20
sg78
I1462
sg79
I300
sg80
I2
sg81
I17
sg82
I354
sg83
I2
sg84
I168
sg85
I1057
sg86
I833
sg87
I108
sg88
I154
sg89
I311
sg90
I1487
sg91
I0
sg92
I1
sg93
I99
sg94
I157
sg95
I41
sg96
I0
sg97
I260
sg98
I333
sg99
I16
sg100
I4
sg101
I2310
sg102
I3
sg103
I291
sg104
I106
sg105
I2305
sg106
I3
sg107
I14
sg108
I7840
sg109
I2115
sg110
I0
sg111
I76
sg112
I0
sg113
I3
sg114
I199
sg115
I2
sg116
I47
sg117
I11
sg118
I59
sg119
I367
sg120
I418
sg121
I35
sg122
I13138
sg123
I539
sg124
I29
sg125
I13
ssg37
(dp160
g1
I13
sg3
I0
sg4
I0
sg5
I0
sg6
I1
sg7
I2
sg8
I0
sg9
I0
sg10
I0
sg11
I0
sg12
I0
sg13
I0
sg14
I0
sg15
I3
sg16
I0
sg17
I11
sg18
I0
sg19
I0
sg20
I2
sg21
I0
sg22
I2
sg23
I1
sg24
I0
sg25
I3
sg26
I0
sg27
I15
sg28
I0
sg29
I0
sg30
I0
sg31
I3
sg32
I0
sg33
I1
sg34
I0
sg35
I1
sg36
I3
sg37
I29
sg38
I0
sg39
I0
sg40
I0
sg41
I1
sg42
I2
sg43
I2
sg44
I0
sg45
I1
sg46
I1
sg47
I0
sg48
I0
sg49
I0
sg50
I162
sg51
I4
sg52
I2
sg53
I4
sg54
I0
sg55
I1
sg56
I1
sg57
I6
sg58
I0
sg59
I1
sg60
I0
sg61
I0
sg62
I0
sg63
I5
sg64
I0
sg65
I0
sg66
I0
sg67
I0
sg68
I0
sg69
I4
sg70
I0
sg71
I0
sg72
I3
sg73
I0
sg74
I2
sg75
I1
sg76
I1
sg77
I0
sg78
I5
sg79
I0
sg80
I0
sg81
I0
sg82
I2
sg83
I0
sg84
I0
sg85
I2
sg86
I1
sg87
I0
sg88
I1
sg89
I0
sg90
I2
sg91
I0
sg92
I0
sg93
I0
sg94
I0
sg95
I0
sg96
I0
sg97
I1
sg98
I1
sg99
I0
sg100
I0
sg101
I5
sg102
I0
sg103
I0
sg104
I0
sg105
I3
sg106
I0
sg107
I0
sg108
I18
sg109
I1
sg110
I0
sg111
I0
sg112
I0
sg113
I0
sg114
I0
sg115
I0
sg116
I1
sg117
I0
sg118
I0
sg119
I1
sg120
I1
sg121
I0
sg122
I24
sg123
I0
sg124
I0
sg125
I0
ssg38
(dp161
g1
I0
sg3
I0
sg4
I0
sg5
I0
sg6
I0
sg7
I0
sg8
I0
sg9
I0
sg10
I0
sg11
I0
sg12
I0
sg13
I0
sg14
I0
sg15
I0
sg16
I0
sg17
I0
sg18
I0
sg19
I0
sg20
I0
sg21
I0
sg22
I0
sg23
I0
sg24
I0
sg25
I0
sg26
I0
sg27
I0
sg28
I0
sg29
I0
sg30
I0
sg31
I0
sg32
I0
sg33
I0
sg34
I0
sg35
I0
sg36
I0
sg37
I0
sg38
I0
sg39
I0
sg40
I0
sg41
I0
sg42
I0
sg43
I0
sg44
I0
sg45
I0
sg46
I0
sg47
I0
sg48
I0
sg49
I0
sg50
I0
sg51
I0
sg52
I0
sg53
I0
sg54
I0
sg55
I0
sg56
I0
sg57
I0
sg58
I0
sg59
I0
sg60
I0
sg61
I0
sg62
I0
sg63
I0
sg64
I0
sg65
I0
sg66
I0
sg67
I0
sg68
I0
sg69
I0
sg70
I0
sg71
I0
sg72
I0
sg73
I0
sg74
I0
sg75
I0
sg76
I0
sg77
I0
sg78
I0
sg79
I0
sg80
I0
sg81
I0
sg82
I0
sg83
I0
sg84
I0
sg85
I0
sg86
I0
sg87
I0
sg88
I0
sg89
I0
sg90
I0
sg91
I0
sg92
I0
sg93
I0
sg94
I0
sg95
I0
sg96
I0
sg97
I0
sg98
I0
sg99
I0
sg100
I0
sg101
I0
sg102
I0
sg103
I0
sg104
I0
sg105
I0
sg106
I0
sg107
I0
sg108
I0
sg109
I0
sg110
I0
sg111
I0
sg112
I0
sg113
I0
sg114
I0
sg115
I0
sg116
I0
sg117
I0
sg118
I0
sg119
I0
sg120
I0
sg121
I0
sg122
I0
sg123
I0
sg124
I0
sg125
I0
ssg39
(dp162
g1
I208
sg3
I13
sg4
I2
sg5
I1
sg6
I26
sg7
I29
sg8
I0
sg9
I0
sg10
I1
sg11
I3
sg12
I0
sg13
I5
sg14
I1
sg15
I59
sg16
I0
sg17
I74
sg18
I2
sg19
I1
sg20
I25
sg21
I1
sg22
I41
sg23
I1
sg24
I0
sg25
I85
sg26
I0
sg27
I526
sg28
I4
sg29
I6
sg30
I15
sg31
I30
sg32
I2
sg33
I24
sg34
I0
sg35
I13
sg36
I90
sg37
I0
sg38
I0
sg39
I235
sg40
I0
sg41
I24
sg42
I30
sg43
I69
sg44
I2
sg45
I2
sg46
I34
sg47
I0
sg48
I17
sg49
I24
sg50
I1371
sg51
I49
sg52
I23
sg53
I57
sg54
I10
sg55
I32
sg56
I21
sg57
I25
sg58
I2
sg59
I16
sg60
I22
sg61
I2
sg62
I19
sg63
I121
sg64
I0
sg65
I1
sg66
I6
sg67
I0
sg68
I0
sg69
I24
sg70
I7
sg71
I8
sg72
I32
sg73
I10
sg74
I25
sg75
I2
sg76
I12
sg77
I4
sg78
I42
sg79
I7
sg80
I0
sg81
I0
sg82
I8
sg83
I0
sg84
I3
sg85
I21
sg86
I28
sg87
I1
sg88
I6
sg89
I9
sg90
I32
sg91
I0
sg92
I0
sg93
I4
sg94
I2
sg95
I1
sg96
I0
sg97
I12
sg98
I12
sg99
I0
sg100
I0
sg101
I64
sg102
I1
sg103
I10
sg104
I6
sg105
I66
sg106
I0
sg107
I2
sg108
I197
sg109
I57
sg110
I0
sg111
I0
sg112
I0
sg113
I0
sg114
I2
sg115
I1
sg116
I3
sg117
I1
sg118
I7
sg119
I27
sg120
I13
sg121
I3
sg122
I315
sg123
I26
sg124
I1
sg125
I1
ssg40
(dp163
g1
I1
sg3
I0
sg4
I0
sg5
I0
sg6
I1
sg7
I0
sg8
I0
sg9
I0
sg10
I0
sg11
I0
sg12
I0
sg13
I0
sg14
I0
sg15
I0
sg16
I0
sg17
I0
sg18
I0
sg19
I0
sg20
I0
sg21
I0
sg22
I0
sg23
I0
sg24
I0
sg25
I1
sg26
I0
sg27
I2
sg28
I0
sg29
I0
sg30
I0
sg31
I0
sg32
I0
sg33
I0
sg34
I0
sg35
I0
sg36
I0
sg37
I0
sg38
I0
sg39
I0
sg40
I0
sg41
I1
sg42
I0
sg43
I1
sg44
I0
sg45
I0
sg46
I0
sg47
I0
sg48
I0
sg49
I1
sg50
I6
sg51
I1
sg52
I0
sg53
I0
sg54
I0
sg55
I0
sg56
I0
sg57
I0
sg58
I0
sg59
I0
sg60
I0
sg61
I0
sg62
I0
sg63
I0
sg64
I0
sg65
I0
sg66
I0
sg67
I0
sg68
I0
sg69
I0
sg70
I0
sg71
I0
sg72
I1
sg73
I0
sg74
I0
sg75
I0
sg76
I0
sg77
I0
sg78
I0
sg79
I0
sg80
I0
sg81
I0
sg82
I1
sg83
I0
sg84
I0
sg85
I0
sg86
I0
sg87
I0
sg88
I0
sg89
I0
sg90
I1
sg91
I0
sg92
I0
sg93
I0
sg94
I1
sg95
I0
sg96
I0
sg97
I0
sg98
I0
sg99
I0
sg100
I0
sg101
I0
sg102
I0
sg103
I0
sg104
I0
sg105
I0
sg106
I0
sg107
I0
sg108
I3
sg109
I0
sg110
I0
sg111
I0
sg112
I0
sg113
I0
sg114
I0
sg115
I0
sg116
I0
sg117
I0
sg118
I0
sg119
I0
sg120
I0
sg121
I0
sg122
I1
sg123
I0
sg124
I0
sg125
I0
ssg41
(dp164
g1
I1264
sg3
I63
sg4
I17
sg5
I5
sg6
I131
sg7
I138
sg8
I21
sg9
I4
sg10
I4
sg11
I23
sg12
I0
sg13
I4
sg14
I27
sg15
I362
sg16
I0
sg17
I646
sg18
I7
sg19
I4
sg20
I219
sg21
I1
sg22
I357
sg23
I3
sg24
I0
sg25
I1022
sg26
I1
sg27
I3844
sg28
I12
sg29
I38
sg30
I53
sg31
I243
sg32
I2
sg33
I103
sg34
I0
sg35
I126
sg36
I622
sg37
I2
sg38
I0
sg39
I17
sg40
I0
sg41
I3638
sg42
I203
sg43
I320
sg44
I45
sg45
I7
sg46
I255
sg47
I0
sg48
I135
sg49
I95
sg50
I9802
sg51
I589
sg52
I59
sg53
I471
sg54
I118
sg55
I309
sg56
I204
sg57
I294
sg58
I13
sg59
I98
sg60
I174
sg61
I7
sg62
I136
sg63
I449
sg64
I4
sg65
I7
sg66
I14
sg67
I0
sg68
I2
sg69
I277
sg70
I29
sg71
I6
sg72
I233
sg73
I88
sg74
I226
sg75
I12
sg76
I39
sg77
I11
sg78
I379
sg79
I62
sg80
I0
sg81
I3
sg82
I79
sg83
I0
sg84
I40
sg85
I342
sg86
I192
sg87
I28
sg88
I24
sg89
I66
sg90
I311
sg91
I0
sg92
I1
sg93
I29
sg94
I39
sg95
I8
sg96
I0
sg97
I47
sg98
I52
sg99
I4
sg100
I0
sg101
I432
sg102
I0
sg103
I66
sg104
I24
sg105
I548
sg106
I0
sg107
I2
sg108
I1619
sg109
I436
sg110
I0
sg111
I21
sg112
I0
sg113
I1
sg114
I54
sg115
I1
sg116
I24
sg117
I1
sg118
I8
sg119
I93
sg120
I93
sg121
I3
sg122
I3625
sg123
I126
sg124
I5
sg125
I2
ssg42
(dp165
g1
I953
sg3
I43
sg4
I23
sg5
I7
sg6
I159
sg7
I97
sg8
I3
sg9
I6
sg10
I6
sg11
I21
sg12
I0
sg13
I2
sg14
I17
sg15
I260
sg16
I0
sg17
I456
sg18
I9
sg19
I8
sg20
I218
sg21
I1
sg22
I383
sg23
I4
sg24
I0
sg25
I964
sg26
I1
sg27
I4375
sg28
I17
sg29
I28
sg30
I73
sg31
I180
sg32
I5
sg33
I123
sg34
I0
sg35
I64
sg36
I470
sg37
I0
sg38
I0
sg39
I22
sg40
I1
sg41
I158
sg42
I2670
sg43
I409
sg44
I30
sg45
I6
sg46
I163
sg47
I0
sg48
I80
sg49
I172
sg50
I6781
sg51
I364
sg52
I89
sg53
I279
sg54
I89
sg55
I188
sg56
I121
sg57
I210
sg58
I19
sg59
I140
sg60
I101
sg61
I5
sg62
I121
sg63
I311
sg64
I2
sg65
I4
sg66
I20
sg67
I0
sg68
I0
sg69
I172
sg70
I37
sg71
I4
sg72
I134
sg73
I40
sg74
I175
sg75
I13
sg76
I33
sg77
I8
sg78
I187
sg79
I62
sg80
I1
sg81
I6
sg82
I106
sg83
I0
sg84
I27
sg85
I169
sg86
I332
sg87
I19
sg88
I28
sg89
I38
sg90
I202
sg91
I0
sg92
I1
sg93
I25
sg94
I38
sg95
I9
sg96
I0
sg97
I41
sg98
I86
sg99
I3
sg100
I1
sg101
I335
sg102
I3
sg103
I101
sg104
I23
sg105
I320
sg106
I0
sg107
I4
sg108
I1034
sg109
I246
sg110
I0
sg111
I13
sg112
I0
sg113
I0
sg114
I41
sg115
I0
sg116
I17
sg117
I6
sg118
I22
sg119
I95
sg120
I71
sg121
I3
sg122
I2185
sg123
I98
sg124
I0
sg125
I0
ssg43
(dp166
g1
I791
sg3
I48
sg4
I15
sg5
I4
sg6
I137
sg7
I86
sg8
I2
sg9
I4
sg10
I4
sg11
I20
sg12
I0
sg13
I4
sg14
I18
sg15
I227
sg16
I0
sg17
I346
sg18
I11
sg19
I3
sg20
I161
sg21
I2
sg22
I305
sg23
I4
sg24
I0
sg25
I726
sg26
I0
sg27
I3827
sg28
I6
sg29
I20
sg30
I99
sg31
I165
sg32
I3
sg33
I89
sg34
I0
sg35
I73
sg36
I459
sg37
I3
sg38
I0
sg39
I16
sg40
I0
sg41
I150
sg42
I237
sg43
I3365
sg44
I39
sg45
I4
sg46
I209
sg47
I0
sg48
I83
sg49
I134
sg50
I5869
sg51
I321
sg52
I125
sg53
I382
sg54
I64
sg55
I165
sg56
I87
sg57
I162
sg58
I10
sg59
I105
sg60
I110
sg61
I5
sg62
I164
sg63
I283
sg64
I3
sg65
I3
sg66
I11
sg67
I0
sg68
I1
sg69
I154
sg70
I24
sg71
I5
sg72
I122
sg73
I69
sg74
I204
sg75
I10
sg76
I20
sg77
I7
sg78
I170
sg79
I43
sg80
I0
sg81
I4
sg82
I99
sg83
I0
sg84
I24
sg85
I130
sg86
I251
sg87
I14
sg88
I17
sg89
I43
sg90
I160
sg91
I0
sg92
I0
sg93
I14
sg94
I36
sg95
I9
sg96
I0
sg97
I53
sg98
I91
sg99
I3
sg100
I1
sg101
I272
sg102
I2
sg103
I80
sg104
I15
sg105
I346
sg106
I0
sg107
I3
sg108
I900
sg109
I253
sg110
I0
sg111
I16
sg112
I0
sg113
I0
sg114
I25
sg115
I0
sg116
I6
sg117
I3
sg118
I21
sg119
I89
sg120
I66
sg121
I5
sg122
I1645
sg123
I88
sg124
I4
sg125
I1
ssg44
(dp167
g1
I113
sg3
I8
sg4
I4
sg5
I3
sg6
I32
sg7
I16
sg8
I0
sg9
I1
sg10
I0
sg11
I3
sg12
I0
sg13
I1
sg14
I5
sg15
I45
sg16
I0
sg17
I63
sg18
I3
sg19
I4
sg20
I25
sg21
I1
sg22
I87
sg23
I1
sg24
I0
sg25
I67
sg26
I0
sg27
I794
sg28
I3
sg29
I6
sg30
I10
sg31
I33
sg32
I3
sg33
I15
sg34
I0
sg35
I8
sg36
I80
sg37
I0
sg38
I1
sg39
I2
sg40
I0
sg41
I20
sg42
I33
sg43
I41
sg44
I426
sg45
I1
sg46
I43
sg47
I0
sg48
I10
sg49
I22
sg50
I749
sg51
I57
sg52
I13
sg53
I74
sg54
I13
sg55
I41
sg56
I31
sg57
I40
sg58
I3
sg59
I25
sg60
I25
sg61
I2
sg62
I10
sg63
I56
sg64
I0
sg65
I0
sg66
I0
sg67
I0
sg68
I0
sg69
I34
sg70
I6
sg71
I0
sg72
I25
sg73
I10
sg74
I39
sg75
I0
sg76
I1
sg77
I0
sg78
I44
sg79
I12
sg80
I0
sg81
I2
sg82
I12
sg83
I0
sg84
I7
sg85
I28
sg86
I29
sg87
I3
sg88
I3
sg89
I5
sg90
I25
sg91
I0
sg92
I0
sg93
I1
sg94
I5
sg95
I0
sg96
I0
sg97
I4
sg98
I5
sg99
I0
sg100
I0
sg101
I64
sg102
I0
sg103
I16
sg104
I4
sg105
I72
sg106
I0
sg107
I1
sg108
I204
sg109
I56
sg110
I0
sg111
I3
sg112
I0
sg113
I0
sg114
I4
sg115
I0
sg116
I1
sg117
I0
sg118
I2
sg119
I17
sg120
I18
sg121
I1
sg122
I346
sg123
I14
sg124
I4
sg125
I0
ssg45
(dp168
g1
I32
sg3
I3
sg4
I0
sg5
I0
sg6
I5
sg7
I4
sg8
I2
sg9
I0
sg10
I0
sg11
I1
sg12
I0
sg13
I1
sg14
I0
sg15
I9
sg16
I0
sg17
I11
sg18
I3
sg19
I0
sg20
I5
sg21
I1
sg22
I11
sg23
I2
sg24
I0
sg25
I38
sg26
I0
sg27
I117
sg28
I0
sg29
I3
sg30
I5
sg31
I9
sg32
I0
sg33
I6
sg34
I0
sg35
I3
sg36
I15
sg37
I0
sg38
I0
sg39
I0
sg40
I0
sg41
I8
sg42
I5
sg43
I3
sg44
I0
sg45
I161
sg46
I7
sg47
I0
sg48
I2
sg49
I9
sg50
I289
sg51
I8
sg52
I1
sg53
I20
sg54
I6
sg55
I10
sg56
I5
sg57
I8
sg58
I0
sg59
I5
sg60
I3
sg61
I1
sg62
I3
sg63
I25
sg64
I0
sg65
I0
sg66
I1
sg67
I0
sg68
I0
sg69
I2
sg70
I1
sg71
I2
sg72
I4
sg73
I5
sg74
I8
sg75
I0
sg76
I2
sg77
I1
sg78
I5
sg79
I1
sg80
I0
sg81
I0
sg82
I1
sg83
I0
sg84
I0
sg85
I6
sg86
I10
sg87
I1
sg88
I0
sg89
I4
sg90
I3
sg91
I0
sg92
I0
sg93
I1
sg94
I0
sg95
I1
sg96
I0
sg97
I8
sg98
I0
sg99
I0
sg100
I0
sg101
I12
sg102
I0
sg103
I2
sg104
I3
sg105
I10
sg106
I0
sg107
I0
sg108
I25
sg109
I12
sg110
I0
sg111
I0
sg112
I0
sg113
I0
sg114
I2
sg115
I0
sg116
I0
sg117
I0
sg118
I0
sg119
I1
sg120
I8
sg121
I1
sg122
I95
sg123
I1
sg124
I1
sg125
I0
ssg46
(dp169
g1
I1125
sg3
I71
sg4
I23
sg5
I7
sg6
I204
sg7
I139
sg8
I9
sg9
I5
sg10
I8
sg11
I33
sg12
I0
sg13
I6
sg14
I48
sg15
I453
sg16
I0
sg17
I684
sg18
I7
sg19
I4
sg20
I193
sg21
I4
sg22
I517
sg23
I13
sg24
I0
sg25
I847
sg26
I0
sg27
I6009
sg28
I16
sg29
I42
sg30
I97
sg31
I286
sg32
I8
sg33
I176
sg34
I0
sg35
I101
sg36
I775
sg37
I2
sg38
I1
sg39
I31
sg40
I0
sg41
I272
sg42
I249
sg43
I449
sg44
I58
sg45
I15
sg46
I3987
sg47
I0
sg48
I116
sg49
I176
sg50
I7967
sg51
I523
sg52
I136
sg53
I635
sg54
I151
sg55
I329
sg56
I175
sg57
I318
sg58
I24
sg59
I149
sg60
I210
sg61
I13
sg62
I141
sg63
I465
sg64
I9
sg65
I7
sg66
I13
sg67
I0
sg68
I0
sg69
I259
sg70
I32
sg71
I13
sg72
I266
sg73
I113
sg74
I366
sg75
I17
sg76
I49
sg77
I8
sg78
I310
sg79
I66
sg80
I0
sg81
I4
sg82
I82
sg83
I0
sg84
I49
sg85
I297
sg86
I244
sg87
I35
sg88
I35
sg89
I82
sg90
I330
sg91
I0
sg92
I1
sg93
I28
sg94
I61
sg95
I14
sg96
I0
sg97
I66
sg98
I71
sg99
I3
sg100
I0
sg101
I570
sg102
I1
sg103
I84
sg104
I32
sg105
I563
sg106
I3
sg107
I5
sg108
I1670
sg109
I523
sg110
I0
sg111
I24
sg112
I0
sg113
I0
sg114
I75
sg115
I1
sg116
I12
sg117
I3
sg118
I27
sg119
I110
sg120
I129
sg121
I9
sg122
I3317
sg123
I124
sg124
I8
sg125
I0
ssg47
(dp170
g1
I0
sg3
I0
sg4
I0
sg5
I0
sg6
I0
sg7
I0
sg8
I0
sg9
I0
sg10
I0
sg11
I0
sg12
I0
sg13
I0
sg14
I0
sg15
I1
sg16
I0
sg17
I0
sg18
I0
sg19
I0
sg20
I0
sg21
I0
sg22
I0
sg23
I0
sg24
I0
sg25
I0
sg26
I0
sg27
I0
sg28
I0
sg29
I0
sg30
I0
sg31
I0
sg32
I0
sg33
I0
sg34
I0
sg35
I0
sg36
I2
sg37
I0
sg38
I0
sg39
I0
sg40
I0
sg41
I0
sg42
I0
sg43
I0
sg44
I0
sg45
I0
sg46
I1
sg47
I2
sg48
I0
sg49
I0
sg50
I5
sg51
I0
sg52
I0
sg53
I0
sg54
I0
sg55
I0
sg56
I0
sg57
I1
sg58
I0
sg59
I0
sg60
I0
sg61
I0
sg62
I0
sg63
I0
sg64
I0
sg65
I0
sg66
I0
sg67
I0
sg68
I0
sg69
I0
sg70
I0
sg71
I0
sg72
I0
sg73
I0
sg74
I0
sg75
I0
sg76
I0
sg77
I0
sg78
I0
sg79
I0
sg80
I0
sg81
I0
sg82
I0
sg83
I0
sg84
I0
sg85
I0
sg86
I0
sg87
I0
sg88
I0
sg89
I0
sg90
I1
sg91
I0
sg92
I0
sg93
I0
sg94
I0
sg95
I0
sg96
I0
sg97
I0
sg98
I0
sg99
I0
sg100
I0
sg101
I0
sg102
I0
sg103
I0
sg104
I0
sg105
I0
sg106
I0
sg107
I0
sg108
I0
sg109
I0
sg110
I0
sg111
I0
sg112
I0
sg113
I0
sg114
I0
sg115
I0
sg116
I0
sg117
I0
sg118
I0
sg119
I0
sg120
I0
sg121
I0
sg122
I2
sg123
I0
sg124
I0
sg125
I0
ssg48
(dp171
g1
I950
sg3
I77
sg4
I9
sg5
I4
sg6
I138
sg7
I108
sg8
I1
sg9
I0
sg10
I6
sg11
I26
sg12
I1
sg13
I0
sg14
I17
sg15
I309
sg16
I0
sg17
I519
sg18
I11
sg19
I5
sg20
I171
sg21
I0
sg22
I305
sg23
I5
sg24
I0
sg25
I722
sg26
I2
sg27
I3665
sg28
I11
sg29
I36
sg30
I70
sg31
I204
sg32
I5
sg33
I104
sg34
I0
sg35
I100
sg36
I583
sg37
I3
sg38
I0
sg39
I10
sg40
I1
sg41
I197
sg42
I201
sg43
I378
sg44
I27
sg45
I6
sg46
I213
sg47
I0
sg48
I1798
sg49
I91
sg50
I7025
sg51
I456
sg52
I68
sg53
I366
sg54
I98
sg55
I215
sg56
I139
sg57
I234
sg58
I23
sg59
I93
sg60
I162
sg61
I10
sg62
I111
sg63
I321
sg64
I5
sg65
I3
sg66
I14
sg67
I0
sg68
I2
sg69
I217
sg70
I26
sg71
I6
sg72
I210
sg73
I55
sg74
I195
sg75
I16
sg76
I38
sg77
I4
sg78
I281
sg79
I48
sg80
I0
sg81
I5
sg82
I69
sg83
I0
sg84
I46
sg85
I222
sg86
I192
sg87
I15
sg88
I19
sg89
I56
sg90
I268
sg91
I0
sg92
I0
sg93
I20
sg94
I29
sg95
I9
sg96
I0
sg97
I42
sg98
I67
sg99
I2
sg100
I0
sg101
I388
sg102
I0
sg103
I56
sg104
I15
sg105
I466
sg106
I1
sg107
I3
sg108
I1403
sg109
I367
sg110
I0
sg111
I16
sg112
I1
sg113
I0
sg114
I54
sg115
I0
sg116
I10
sg117
I2
sg118
I11
sg119
I81
sg120
I109
sg121
I3
sg122
I2457
sg123
I97
sg124
I3
sg125
I0
ssg49
(dp172
g1
I232
sg3
I13
sg4
I9
sg5
I0
sg6
I65
sg7
I29
sg8
I1
sg9
I1
sg10
I3
sg11
I12
sg12
I0
sg13
I1
sg14
I5
sg15
I73
sg16
I0
sg17
I99
sg18
I4
sg19
I1
sg20
I53
sg21
I1
sg22
I136
sg23
I2
sg24
I0
sg25
I225
sg26
I1
sg27
I1144
sg28
I5
sg29
I10
sg30
I21
sg31
I57
sg32
I1
sg33
I49
sg34
I0
sg35
I18
sg36
I119
sg37
I1
sg38
I0
sg39
I3
sg40
I0
sg41
I30
sg42
I64
sg43
I76
sg44
I6
sg45
I3
sg46
I50
sg47
I0
sg48
I23
sg49
I904
sg50
I1520
sg51
I79
sg52
I34
sg53
I85
sg54
I24
sg55
I52
sg56
I30
sg57
I41
sg58
I6
sg59
I48
sg60
I36
sg61
I2
sg62
I30
sg63
I84
sg64
I3
sg65
I0
sg66
I4
sg67
I0
sg68
I0
sg69
I42
sg70
I10
sg71
I3
sg72
I36
sg73
I15
sg74
I99
sg75
I6
sg76
I8
sg77
I1
sg78
I64
sg79
I17
sg80
I0
sg81
I2
sg82
I20
sg83
I0
sg84
I12
sg85
I45
sg86
I109
sg87
I5
sg88
I13
sg89
I14
sg90
I34
sg91
I0
sg92
I1
sg93
I2
sg94
I11
sg95
I3
sg96
I0
sg97
I21
sg98
I12
sg99
I1
sg100
I0
sg101
I104
sg102
I0
sg103
I23
sg104
I7
sg105
I71
sg106
I0
sg107
I1
sg108
I238
sg109
I90
sg110
I0
sg111
I5
sg112
I0
sg113
I0
sg114
I6
sg115
I1
sg116
I4
sg117
I1
sg118
I6
sg119
I22
sg120
I25
sg121
I1
sg122
I524
sg123
I20
sg124
I2
sg125
I0
ssg50
(dp173
g1
I78623
sg3
I2382
sg4
I684
sg5
I221
sg6
I4838
sg7
I7545
sg8
I787
sg9
I151
sg10
I304
sg11
I1285
sg12
I11
sg13
I278
sg14
I925
sg15
I13533
sg16
I10
sg17
I24114
sg18
I888
sg19
I196
sg20
I11625
sg21
I89
sg22
I13181
sg23
I289
sg24
I0
sg25
I46190
sg26
I5
sg27
I142933
sg28
I487
sg29
I1138
sg30
I2760
sg31
I8876
sg32
I199
sg33
I4087
sg34
I3
sg35
I4001
sg36
I25762
sg37
I221
sg38
I9
sg39
I1023
sg40
I9
sg41
I10279
sg42
I8873
sg43
I13811
sg44
I1402
sg45
I888
sg46
I10114
sg47
I7
sg48
I4481
sg49
I4106
sg50
I732898
sg51
I21077
sg52
I3291
sg53
I16164
sg54
I4495
sg55
I10096
sg56
I8512
sg57
I10940
sg58
I680
sg59
I4213
sg60
I6849
sg61
I314
sg62
I5813
sg63
I23482
sg64
I283
sg65
I235
sg66
I1045
sg67
I5
sg68
I44
sg69
I12001
sg70
I1348
sg71
I498
sg72
I7710
sg73
I2815
sg74
I7960
sg75
I569
sg76
I2344
sg77
I470
sg78
I11814
sg79
I2720
sg80
I20
sg81
I164
sg82
I3278
sg83
I1
sg84
I1965
sg85
I11753
sg86
I8800
sg87
I914
sg88
I1124
sg89
I2941
sg90
I11292
sg91
I3
sg92
I38
sg93
I1685
sg94
I1677
sg95
I247
sg96
I0
sg97
I2925
sg98
I2557
sg99
I188
sg100
I27
sg101
I17843
sg102
I39
sg103
I2421
sg104
I1196
sg105
I21306
sg106
I18
sg107
I138
sg108
I59111
sg109
I15561
sg110
I1
sg111
I819
sg112
I24
sg113
I10
sg114
I2018
sg115
I30
sg116
I591
sg117
I199
sg118
I509
sg119
I6144
sg120
I4208
sg121
I268
sg122
I149866
sg123
I4746
sg124
I359
sg125
I78
ssg51
(dp174
g1
I2990
sg3
I185
sg4
I36
sg5
I14
sg6
I302
sg7
I296
sg8
I25
sg9
I6
sg10
I13
sg11
I79
sg12
I1
sg13
I12
sg14
I75
sg15
I897
sg16
I1
sg17
I1613
sg18
I33
sg19
I19
sg20
I467
sg21
I4
sg22
I922
sg23
I21
sg24
I0
sg25
I2334
sg26
I1
sg27
I10757
sg28
I45
sg29
I65
sg30
I183
sg31
I565
sg32
I14
sg33
I275
sg34
I0
sg35
I227
sg36
I1694
sg37
I2
sg38
I0
sg39
I33
sg40
I0
sg41
I756
sg42
I552
sg43
I959
sg44
I129
sg45
I38
sg46
I668
sg47
I0
sg48
I313
sg49
I266
sg50
I21720
sg51
I7871
sg52
I210
sg53
I1110
sg54
I303
sg55
I722
sg56
I418
sg57
I785
sg58
I43
sg59
I243
sg60
I456
sg61
I31
sg62
I331
sg63
I1101
sg64
I19
sg65
I7
sg66
I43
sg67
I0
sg68
I3
sg69
I678
sg70
I76
sg71
I19
sg72
I551
sg73
I164
sg74
I617
sg75
I27
sg76
I77
sg77
I20
sg78
I872
sg79
I123
sg80
I1
sg81
I13
sg82
I187
sg83
I0
sg84
I100
sg85
I810
sg86
I524
sg87
I85
sg88
I59
sg89
I172
sg90
I853
sg91
I0
sg92
I1
sg93
I58
sg94
I105
sg95
I10
sg96
I0
sg97
I112
sg98
I152
sg99
I8
sg100
I3
sg101
I1184
sg102
I2
sg103
I172
sg104
I55
sg105
I1499
sg106
I1
sg107
I10
sg108
I3928
sg109
I1101
sg110
I0
sg111
I66
sg112
I0
sg113
I1
sg114
I174
sg115
I0
sg116
I22
sg117
I8
sg118
I32
sg119
I203
sg120
I253
sg121
I8
sg122
I8826
sg123
I300
sg124
I4
sg125
I5
ssg52
(dp175
g1
I213
sg3
I15
sg4
I14
sg5
I0
sg6
I46
sg7
I22
sg8
I2
sg9
I0
sg10
I5
sg11
I4
sg12
I0
sg13
I1
sg14
I5
sg15
I71
sg16
I0
sg17
I104
sg18
I5
sg19
I1
sg20
I49
sg21
I1
sg22
I118
sg23
I1
sg24
I0
sg25
I165
sg26
I0
sg27
I1248
sg28
I3
sg29
I13
sg30
I18
sg31
I41
sg32
I1
sg33
I53
sg34
I0
sg35
I19
sg36
I105
sg37
I0
sg38
I0
sg39
I4
sg40
I0
sg41
I36
sg42
I50
sg43
I96
sg44
I9
sg45
I2
sg46
I53
sg47
I0
sg48
I20
sg49
I50
sg50
I1444
sg51
I71
sg52
I864
sg53
I79
sg54
I11
sg55
I49
sg56
I34
sg57
I65
sg58
I5
sg59
I42
sg60
I23
sg61
I2
sg62
I28
sg63
I94
sg64
I3
sg65
I1
sg66
I4
sg67
I0
sg68
I1
sg69
I37
sg70
I10
sg71
I0
sg72
I42
sg73
I19
sg74
I85
sg75
I0
sg76
I9
sg77
I2
sg78
I39
sg79
I15
sg80
I0
sg81
I2
sg82
I38
sg83
I0
sg84
I7
sg85
I28
sg86
I86
sg87
I3
sg88
I8
sg89
I15
sg90
I37
sg91
I0
sg92
I0
sg93
I6
sg94
I26
sg95
I2
sg96
I0
sg97
I15
sg98
I25
sg99
I2
sg100
I0
sg101
I76
sg102
I1
sg103
I22
sg104
I3
sg105
I94
sg106
I0
sg107
I2
sg108
I239
sg109
I73
sg110
I0
sg111
I5
sg112
I0
sg113
I0
sg114
I8
sg115
I0
sg116
I2
sg117
I0
sg118
I8
sg119
I33
sg120
I27
sg121
I4
sg122
I416
sg123
I22
sg124
I1
sg125
I1
ssg53
(dp176
g1
I2507
sg3
I156
sg4
I35
sg5
I13
sg6
I307
sg7
I303
sg8
I14
sg9
I10
sg10
I18
sg11
I71
sg12
I0
sg13
I10
sg14
I64
sg15
I805
sg16
I0
sg17
I1303
sg18
I47
sg19
I3
sg20
I394
sg21
I4
sg22
I795
sg23
I14
sg24
I0
sg25
I1788
sg26
I0
sg27
I9369
sg28
I48
sg29
I70
sg30
I188
sg31
I531
sg32
I12
sg33
I286
sg34
I1
sg35
I283
sg36
I1581
sg37
I6
sg38
I0
sg39
I44
sg40
I0
sg41
I489
sg42
I539
sg43
I982
sg44
I109
sg45
I31
sg46
I819
sg47
I0
sg48
I258
sg49
I261
sg50
I17422
sg51
I1058
sg52
I201
sg53
I6884
sg54
I301
sg55
I612
sg56
I412
sg57
I580
sg58
I40
sg59
I227
sg60
I388
sg61
I19
sg62
I344
sg63
I958
sg64
I22
sg65
I12
sg66
I29
sg67
I0
sg68
I1
sg69
I532
sg70
I93
sg71
I27
sg72
I531
sg73
I204
sg74
I577
sg75
I39
sg76
I82
sg77
I12
sg78
I657
sg79
I155
sg80
I0
sg81
I10
sg82
I185
sg83
I0
sg84
I91
sg85
I571
sg86
I442
sg87
I74
sg88
I57
sg89
I165
sg90
I709
sg91
I0
sg92
I3
sg93
I43
sg94
I91
sg95
I29
sg96
I0
sg97
I152
sg98
I164
sg99
I16
sg100
I1
sg101
I1026
sg102
I1
sg103
I158
sg104
I53
sg105
I1143
sg106
I4
sg107
I5
sg108
I3726
sg109
I1099
sg110
I0
sg111
I44
sg112
I0
sg113
I0
sg114
I133
sg115
I0
sg116
I20
sg117
I5
sg118
I30
sg119
I203
sg120
I209
sg121
I19
sg122
I6351
sg123
I244
sg124
I16
sg125
I1
ssg54
(dp177
g1
I1038
sg3
I67
sg4
I19
sg5
I4
sg6
I153
sg7
I99
sg8
I9
sg9
I1
sg10
I6
sg11
I37
sg12
I0
sg13
I2
sg14
I28
sg15
I295
sg16
I0
sg17
I572
sg18
I48
sg19
I4
sg20
I153
sg21
I4
sg22
I461
sg23
I3
sg24
I0
sg25
I872
sg26
I0
sg27
I4377
sg28
I26
sg29
I30
sg30
I44
sg31
I304
sg32
I7
sg33
I131
sg34
I0
sg35
I85
sg36
I493
sg37
I0
sg38
I1
sg39
I20
sg40
I1
sg41
I265
sg42
I200
sg43
I232
sg44
I46
sg45
I21
sg46
I345
sg47
I1
sg48
I94
sg49
I115
sg50
I7347
sg51
I488
sg52
I96
sg53
I400
sg54
I1588
sg55
I280
sg56
I170
sg57
I418
sg58
I12
sg59
I107
sg60
I138
sg61
I8
sg62
I89
sg63
I448
sg64
I5
sg65
I5
sg66
I19
sg67
I0
sg68
I0
sg69
I246
sg70
I22
sg71
I11
sg72
I212
sg73
I101
sg74
I337
sg75
I13
sg76
I39
sg77
I6
sg78
I313
sg79
I46
sg80
I0
sg81
I6
sg82
I75
sg83
I0
sg84
I54
sg85
I291
sg86
I207
sg87
I60
sg88
I20
sg89
I72
sg90
I239
sg91
I0
sg92
I0
sg93
I29
sg94
I59
sg95
I12
sg96
I0
sg97
I47
sg98
I38
sg99
I6
sg100
I0
sg101
I389
sg102
I0
sg103
I64
sg104
I16
sg105
I512
sg106
I1
sg107
I10
sg108
I1283
sg109
I419
sg110
I0
sg111
I31
sg112
I1
sg113
I0
sg114
I57
sg115
I0
sg116
I20
sg117
I3
sg118
I12
sg119
I73
sg120
I112
sg121
I4
sg122
I3200
sg123
I151
sg124
I6
sg125
I0
ssg55
(dp178
g1
I1249
sg3
I65
sg4
I17
sg5
I7
sg6
I228
sg7
I114
sg8
I12
sg9
I3
sg10
I8
sg11
I48
sg12
I0
sg13
I2
sg14
I30
sg15
I419
sg16
I1
sg17
I663
sg18
I12
sg19
I7
sg20
I186
sg21
I5
sg22
I561
sg23
I9
sg24
I0
sg25
I809
sg26
I0
sg27
I5822
sg28
I17
sg29
I46
sg30
I61
sg31
I260
sg32
I11
sg33
I169
sg34
I0
sg35
I82
sg36
I743
sg37
I3
sg38
I0
sg39
I18
sg40
I0
sg41
I229
sg42
I195
sg43
I334
sg44
I53
sg45
I12
sg46
I308
sg47
I0
sg48
I109
sg49
I185
sg50
I8255
sg51
I564
sg52
I112
sg53
I454
sg54
I167
sg55
I3293
sg56
I210
sg57
I327
sg58
I24
sg59
I144
sg60
I175
sg61
I15
sg62
I117
sg63
I491
sg64
I11
sg65
I13
sg66
I16
sg67
I0
sg68
I1
sg69
I285
sg70
I37
sg71
I9
sg72
I240
sg73
I88
sg74
I350
sg75
I20
sg76
I39
sg77
I12
sg78
I358
sg79
I70
sg80
I1
sg81
I10
sg82
I69
sg83
I0
sg84
I76
sg85
I280
sg86
I276
sg87
I26
sg88
I52
sg89
I94
sg90
I302
sg91
I0
sg92
I0
sg93
I29
sg94
I59
sg95
I13
sg96
I0
sg97
I54
sg98
I77
sg99
I3
sg100
I0
sg101
I530
sg102
I1
sg103
I109
sg104
I20
sg105
I490
sg106
I1
sg107
I4
sg108
I1495
sg109
I477
sg110
I0
sg111
I30
sg112
I2
sg113
I0
sg114
I74
sg115
I1
sg116
I19
sg117
I2
sg118
I20
sg119
I108
sg120
I125
sg121
I5
sg122
I3312
sg123
I137
sg124
I5
sg125
I1
ssg56
(dp179
g1
I601
sg3
I33
sg4
I9
sg5
I3
sg6
I62
sg7
I72
sg8
I4
sg9
I4
sg10
I5
sg11
I18
sg12
I0
sg13
I1
sg14
I15
sg15
I193
sg16
I0
sg17
I279
sg18
I5
sg19
I6
sg20
I97
sg21
I0
sg22
I212
sg23
I4
sg24
I0
sg25
I386
sg26
I1
sg27
I1970
sg28
I3
sg29
I17
sg30
I31
sg31
I122
sg32
I4
sg33
I63
sg34
I1
sg35
I58
sg36
I313
sg37
I0
sg38
I0
sg39
I7
sg40
I0
sg41
I116
sg42
I120
sg43
I122
sg44
I18
sg45
I6
sg46
I134
sg47
I0
sg48
I46
sg49
I72
sg50
I4331
sg51
I243
sg52
I34
sg53
I185
sg54
I61
sg55
I137
sg56
I2247
sg57
I145
sg58
I13
sg59
I58
sg60
I80
sg61
I4
sg62
I51
sg63
I227
sg64
I4
sg65
I3
sg66
I16
sg67
I0
sg68
I0
sg69
I133
sg70
I24
sg71
I10
sg72
I90
sg73
I41
sg74
I112
sg75
I6
sg76
I21
sg77
I3
sg78
I142
sg79
I31
sg80
I0
sg81
I8
sg82
I29
sg83
I0
sg84
I19
sg85
I133
sg86
I99
sg87
I16
sg88
I13
sg89
I30
sg90
I129
sg91
I0
sg92
I0
sg93
I19
sg94
I28
sg95
I2
sg96
I0
sg97
I35
sg98
I23
sg99
I1
sg100
I0
sg101
I243
sg102
I2
sg103
I37
sg104
I12
sg105
I262
sg106
I0
sg107
I3
sg108
I702
sg109
I193
sg110
I0
sg111
I8
sg112
I0
sg113
I0
sg114
I33
sg115
I0
sg116
I5
sg117
I0
sg118
I5
sg119
I44
sg120
I61
sg121
I2
sg122
I1665
sg123
I61
sg124
I7
sg125
I0
ssg57
(dp180
g1
I721
sg3
I38
sg4
I13
sg5
I6
sg6
I136
sg7
I59
sg8
I8
sg9
I1
sg10
I4
sg11
I34
sg12
I0
sg13
I2
sg14
I20
sg15
I187
sg16
I0
sg17
I389
sg18
I11
sg19
I6
sg20
I172
sg21
I3
sg22
I345
sg23
I4
sg24
I0
sg25
I718
sg26
I0
sg27
I3235
sg28
I18
sg29
I28
sg30
I33
sg31
I175
sg32
I3
sg33
I75
sg34
I0
sg35
I47
sg36
I324
sg37
I1
sg38
I0
sg39
I11
sg40
I0
sg41
I179
sg42
I135
sg43
I173
sg44
I13
sg45
I11
sg46
I143
sg47
I0
sg48
I64
sg49
I67
sg50
I5265
sg51
I310
sg52
I59
sg53
I270
sg54
I73
sg55
I181
sg56
I92
sg57
I4097
sg58
I13
sg59
I68
sg60
I112
sg61
I6
sg62
I70
sg63
I278
sg64
I7
sg65
I3
sg66
I12
sg67
I0
sg68
I0
sg69
I169
sg70
I15
sg71
I6
sg72
I143
sg73
I33
sg74
I194
sg75
I12
sg76
I23
sg77
I3
sg78
I224
sg79
I34
sg80
I1
sg81
I2
sg82
I57
sg83
I0
sg84
I24
sg85
I194
sg86
I203
sg87
I18
sg88
I12
sg89
I39
sg90
I152
sg91
I0
sg92
I0
sg93
I17
sg94
I25
sg95
I7
sg96
I0
sg97
I30
sg98
I35
sg99
I1
sg100
I1
sg101
I238
sg102
I0
sg103
I53
sg104
I8
sg105
I363
sg106
I0
sg107
I2
sg108
I875
sg109
I240
sg110
I0
sg111
I16
sg112
I0
sg113
I1
sg114
I36
sg115
I0
sg116
I6
sg117
I0
sg118
I15
sg119
I53
sg120
I75
sg121
I4
sg122
I2279
sg123
I76
sg124
I4
sg125
I3
ssg58
(dp181
g1
I57
sg3
I5
sg4
I2
sg5
I0
sg6
I12
sg7
I10
sg8
I0
sg9
I1
sg10
I0
sg11
I1
sg12
I0
sg13
I0
sg14
I2
sg15
I23
sg16
I0
sg17
I48
sg18
I0
sg19
I1
sg20
I9
sg21
I0
sg22
I23
sg23
I0
sg24
I0
sg25
I38
sg26
I0
sg27
I286
sg28
I2
sg29
I3
sg30
I5
sg31
I20
sg32
I0
sg33
I11
sg34
I0
sg35
I5
sg36
I31
sg37
I0
sg38
I0
sg39
I0
sg40
I0
sg41
I8
sg42
I16
sg43
I12
sg44
I1
sg45
I1
sg46
I4
sg47
I0
sg48
I15
sg49
I7
sg50
I421
sg51
I20
sg52
I5
sg53
I9
sg54
I12
sg55
I10
sg56
I7
sg57
I21
sg58
I227
sg59
I9
sg60
I6
sg61
I0
sg62
I4
sg63
I17
sg64
I0
sg65
I0
sg66
I1
sg67
I0
sg68
I0
sg69
I14
sg70
I4
sg71
I0
sg72
I10
sg73
I5
sg74
I16
sg75
I1
sg76
I5
sg77
I0
sg78
I18
sg79
I3
sg80
I0
sg81
I0
sg82
I6
sg83
I0
sg84
I2
sg85
I10
sg86
I15
sg87
I3
sg88
I0
sg89
I2
sg90
I22
sg91
I0
sg92
I0
sg93
I1
sg94
I6
sg95
I0
sg96
I0
sg97
I0
sg98
I4
sg99
I0
sg100
I0
sg101
I38
sg102
I0
sg103
I3
sg104
I2
sg105
I23
sg106
I0
sg107
I0
sg108
I76
sg109
I25
sg110
I0
sg111
I0
sg112
I0
sg113
I0
sg114
I3
sg115
I0
sg116
I0
sg117
I1
sg118
I0
sg119
I6
sg120
I6
sg121
I0
sg122
I178
sg123
I4
sg124
I0
sg125
I0
ssg59
(dp182
g1
I214
sg3
I10
sg4
I6
sg5
I2
sg6
I56
sg7
I18
sg8
I3
sg9
I1
sg10
I2
sg11
I12
sg12
I1
sg13
I1
sg14
I5
sg15
I66
sg16
I0
sg17
I90
sg18
I6
sg19
I1
sg20
I58
sg21
I1
sg22
I136
sg23
I2
sg24
I0
sg25
I253
sg26
I0
sg27
I1407
sg28
I6
sg29
I7
sg30
I23
sg31
I42
sg32
I1
sg33
I56
sg34
I0
sg35
I15
sg36
I108
sg37
I0
sg38
I0
sg39
I3
sg40
I0
sg41
I29
sg42
I72
sg43
I91
sg44
I4
sg45
I3
sg46
I39
sg47
I0
sg48
I15
sg49
I66
sg50
I1684
sg51
I66
sg52
I40
sg53
I80
sg54
I20
sg55
I46
sg56
I32
sg57
I64
sg58
I2
sg59
I1121
sg60
I28
sg61
I1
sg62
I40
sg63
I102
sg64
I2
sg65
I2
sg66
I2
sg67
I0
sg68
I1
sg69
I44
sg70
I13
sg71
I4
sg72
I23
sg73
I14
sg74
I67
sg75
I6
sg76
I10
sg77
I3
sg78
I40
sg79
I15
sg80
I1
sg81
I4
sg82
I31
sg83
I0
sg84
I8
sg85
I49
sg86
I118
sg87
I1
sg88
I5
sg89
I9
sg90
I51
sg91
I0
sg92
I0
sg93
I6
sg94
I14
sg95
I3
sg96
I0
sg97
I19
sg98
I16
sg99
I0
sg100
I0
sg101
I92
sg102
I0
sg103
I27
sg104
I4
sg105
I87
sg106
I0
sg107
I3
sg108
I269
sg109
I58
sg110
I0
sg111
I9
sg112
I0
sg113
I0
sg114
I12
sg115
I0
sg116
I2
sg117
I1
sg118
I9
sg119
I27
sg120
I30
sg121
I2
sg122
I460
sg123
I25
sg124
I2
sg125
I0
ssg60
(dp183
g1
I1271
sg3
I90
sg4
I19
sg5
I8
sg6
I174
sg7
I169
sg8
I10
sg9
I4
sg10
I6
sg11
I30
sg12
I0
sg13
I6
sg14
I38
sg15
I394
sg16
I0
sg17
I722
sg18
I17
sg19
I5
sg20
I230
sg21
I1
sg22
I401
sg23
I5
sg24
I0
sg25
I924
sg26
I0
sg27
I4670
sg28
I12
sg29
I41
sg30
I81
sg31
I295
sg32
I5
sg33
I152
sg34
I0
sg35
I141
sg36
I872
sg37
I2
sg38
I0
sg39
I23
sg40
I0
sg41
I277
sg42
I206
sg43
I329
sg44
I27
sg45
I11
sg46
I315
sg47
I0
sg48
I164
sg49
I116
sg50
I9362
sg51
I542
sg52
I109
sg53
I613
sg54
I182
sg55
I357
sg56
I242
sg57
I366
sg58
I25
sg59
I98
sg60
I3178
sg61
I10
sg62
I129
sg63
I547
sg64
I20
sg65
I9
sg66
I31
sg67
I0
sg68
I0
sg69
I287
sg70
I33
sg71
I10
sg72
I250
sg73
I87
sg74
I271
sg75
I21
sg76
I48
sg77
I10
sg78
I398
sg79
I56
sg80
I0
sg81
I7
sg82
I98
sg83
I0
sg84
I52
sg85
I309
sg86
I226
sg87
I40
sg88
I33
sg89
I85
sg90
I405
sg91
I0
sg92
I1
sg93
I27
sg94
I41
sg95
I8
sg96
I0
sg97
I70
sg98
I60
sg99
I6
sg100
I2
sg101
I609
sg102
I0
sg103
I69
sg104
I25
sg105
I593
sg106
I1
sg107
I5
sg108
I2101
sg109
I593
sg110
I0
sg111
I25
sg112
I0
sg113
I0
sg114
I75
sg115
I0
sg116
I10
sg117
I2
sg118
I21
sg119
I114
sg120
I101
sg121
I9
sg122
I3478
sg123
I140
sg124
I13
sg125
I1
ssg61
(dp184
g1
I14
sg3
I2
sg4
I1
sg5
I0
sg6
I5
sg7
I1
sg8
I0
sg9
I0
sg10
I0
sg11
I1
sg12
I0
sg13
I0
sg14
I0
sg15
I4
sg16
I0
sg17
I8
sg18
I0
sg19
I1
sg20
I2
sg21
I0
sg22
I7
sg23
I0
sg24
I0
sg25
I10
sg26
I0
sg27
I86
sg28
I0
sg29
I0
sg30
I0
sg31
I6
sg32
I1
sg33
I1
sg34
I0
sg35
I2
sg36
I6
sg37
I0
sg38
I0
sg39
I0
sg40
I0
sg41
I1
sg42
I5
sg43
I6
sg44
I2
sg45
I0
sg46
I3
sg47
I0
sg48
I2
sg49
I8
sg50
I91
sg51
I5
sg52
I3
sg53
I9
sg54
I0
sg55
I4
sg56
I0
sg57
I3
sg58
I0
sg59
I1
sg60
I1
sg61
I77
sg62
I1
sg63
I5
sg64
I0
sg65
I0
sg66
I0
sg67
I0
sg68
I0
sg69
I1
sg70
I2
sg71
I0
sg72
I3
sg73
I0
sg74
I6
sg75
I0
sg76
I0
sg77
I0
sg78
I6
sg79
I1
sg80
I0
sg81
I0
sg82
I0
sg83
I0
sg84
I0
sg85
I2
sg86
I3
sg87
I2
sg88
I0
sg89
I0
sg90
I2
sg91
I0
sg92
I0
sg93
I0
sg94
I1
sg95
I0
sg96
I0
sg97
I0
sg98
I0
sg99
I0
sg100
I0
sg101
I13
sg102
I0
sg103
I0
sg104
I1
sg105
I6
sg106
I0
sg107
I0
sg108
I13
sg109
I5
sg110
I0
sg111
I0
sg112
I0
sg113
I0
sg114
I1
sg115
I0
sg116
I1
sg117
I0
sg118
I0
sg119
I2
sg120
I0
sg121
I0
sg122
I40
sg123
I4
sg124
I0
sg125
I0
ssg62
(dp185
g1
I814
sg3
I35
sg4
I12
sg5
I2
sg6
I109
sg7
I84
sg8
I2
sg9
I1
sg10
I3
sg11
I23
sg12
I0
sg13
I3
sg14
I14
sg15
I198
sg16
I0
sg17
I285
sg18
I12
sg19
I1
sg20
I161
sg21
I0
sg22
I198
sg23
I1
sg24
I0
sg25
I709
sg26
I0
sg27
I2824
sg28
I7
sg29
I18
sg30
I64
sg31
I102
sg32
I5
sg33
I85
sg34
I0
sg35
I60
sg36
I357
sg37
I1
sg38
I0
sg39
I15
sg40
I0
sg41
I116
sg42
I166
sg43
I322
sg44
I24
sg45
I7
sg46
I140
sg47
I0
sg48
I62
sg49
I119
sg50
I6066
sg51
I231
sg52
I75
sg53
I247
sg54
I56
sg55
I126
sg56
I88
sg57
I134
sg58
I3
sg59
I102
sg60
I76
sg61
I3
sg62
I1869
sg63
I247
sg64
I2
sg65
I5
sg66
I12
sg67
I0
sg68
I0
sg69
I128
sg70
I31
sg71
I3
sg72
I111
sg73
I38
sg74
I88
sg75
I8
sg76
I36
sg77
I2
sg78
I133
sg79
I64
sg80
I0
sg81
I4
sg82
I62
sg83
I0
sg84
I15
sg85
I149
sg86
I172
sg87
I9
sg88
I22
sg89
I31
sg90
I154
sg91
I0
sg92
I1
sg93
I21
sg94
I22
sg95
I4
sg96
I0
sg97
I42
sg98
I77
sg99
I3
sg100
I0
sg101
I244
sg102
I1
sg103
I61
sg104
I17
sg105
I242
sg106
I0
sg107
I1
sg108
I906
sg109
I204
sg110
I0
sg111
I8
sg112
I0
sg113
I0
sg114
I33
sg115
I0
sg116
I3
sg117
I1
sg118
I22
sg119
I72
sg120
I64
sg121
I2
sg122
I1558
sg123
I68
sg124
I4
sg125
I0
ssg63
(dp186
g1
I1766
sg3
I77
sg4
I27
sg5
I14
sg6
I156
sg7
I232
sg8
I35
sg9
I2
sg10
I10
sg11
I45
sg12
I3
sg13
I6
sg14
I33
sg15
I451
sg16
I0
sg17
I776
sg18
I31
sg19
I7
sg20
I287
sg21
I2
sg22
I379
sg23
I8
sg24
I0
sg25
I1083
sg26
I0
sg27
I4492
sg28
I14
sg29
I48
sg30
I83
sg31
I316
sg32
I6
sg33
I145
sg34
I0
sg35
I113
sg36
I940
sg37
I12
sg38
I0
sg39
I35
sg40
I0
sg41
I258
sg42
I230
sg43
I381
sg44
I35
sg45
I24
sg46
I369
sg47
I0
sg48
I149
sg49
I149
sg50
I13155
sg51
I604
sg52
I112
sg53
I482
sg54
I142
sg55
I312
sg56
I297
sg57
I331
sg58
I28
sg59
I155
sg60
I210
sg61
I15
sg62
I147
sg63
I6296
sg64
I11
sg65
I13
sg66
I38
sg67
I0
sg68
I0
sg69
I349
sg70
I46
sg71
I28
sg72
I284
sg73
I106
sg74
I283
sg75
I13
sg76
I80
sg77
I9
sg78
I369
sg79
I87
sg80
I0
sg81
I6
sg82
I87
sg83
I0
sg84
I55
sg85
I291
sg86
I268
sg87
I30
sg88
I49
sg89
I117
sg90
I347
sg91
I0
sg92
I0
sg93
I41
sg94
I57
sg95
I10
sg96
I0
sg97
I123
sg98
I94
sg99
I14
sg100
I1
sg101
I591
sg102
I0
sg103
I86
sg104
I39
sg105
I552
sg106
I3
sg107
I3
sg108
I1911
sg109
I565
sg110
I0
sg111
I18
sg112
I0
sg113
I0
sg114
I55
sg115
I0
sg116
I15
sg117
I6
sg118
I18
sg119
I169
sg120
I129
sg121
I11
sg122
I4085
sg123
I146
sg124
I7
sg125
I1
ssg64
(dp187
g1
I51
sg3
I2
sg4
I0
sg5
I1
sg6
I10
sg7
I4
sg8
I0
sg9
I0
sg10
I1
sg11
I2
sg12
I0
sg13
I0
sg14
I1
sg15
I23
sg16
I0
sg17
I19
sg18
I1
sg19
I0
sg20
I12
sg21
I0
sg22
I29
sg23
I1
sg24
I0
sg25
I46
sg26
I0
sg27
I300
sg28
I0
sg29
I2
sg30
I8
sg31
I9
sg32
I0
sg33
I17
sg34
I0
sg35
I0
sg36
I34
sg37
I0
sg38
I0
sg39
I1
sg40
I0
sg41
I7
sg42
I25
sg43
I26
sg44
I1
sg45
I1
sg46
I10
sg47
I0
sg48
I6
sg49
I11
sg50
I434
sg51
I21
sg52
I7
sg53
I23
sg54
I4
sg55
I8
sg56
I6
sg57
I16
sg58
I1
sg59
I6
sg60
I4
sg61
I1
sg62
I13
sg63
I17
sg64
I56
sg65
I0
sg66
I1
sg67
I0
sg68
I0
sg69
I5
sg70
I3
sg71
I0
sg72
I10
sg73
I2
sg74
I18
sg75
I0
sg76
I2
sg77
I0
sg78
I7
sg79
I2
sg80
I0
sg81
I0
sg82
I9
sg83
I0
sg84
I1
sg85
I5
sg86
I10
sg87
I1
sg88
I2
sg89
I1
sg90
I13
sg91
I0
sg92
I0
sg93
I0
sg94
I2
sg95
I3
sg96
I0
sg97
I3
sg98
I6
sg99
I0
sg100
I0
sg101
I19
sg102
I0
sg103
I8
sg104
I3
sg105
I17
sg106
I0
sg107
I0
sg108
I61
sg109
I19
sg110
I0
sg111
I2
sg112
I0
sg113
I0
sg114
I2
sg115
I0
sg116
I0
sg117
I0
sg118
I2
sg119
I5
sg120
I4
sg121
I0
sg122
I99
sg123
I12
sg124
I0
sg125
I0
ssg65
(dp188
g1
I13
sg3
I1
sg4
I0
sg5
I0
sg6
I5
sg7
I1
sg8
I0
sg9
I0
sg10
I0
sg11
I2
sg12
I0
sg13
I0
sg14
I0
sg15
I3
sg16
I0
sg17
I2
sg18
I1
sg19
I0
sg20
I2
sg21
I0
sg22
I1
sg23
I0
sg24
I0
sg25
I7
sg26
I0
sg27
I17
sg28
I0
sg29
I0
sg30
I0
sg31
I3
sg32
I0
sg33
I1
sg34
I0
sg35
I0
sg36
I3
sg37
I0
sg38
I0
sg39
I0
sg40
I0
sg41
I1
sg42
I0
sg43
I5
sg44
I0
sg45
I0
sg46
I2
sg47
I0
sg48
I1
sg49
I1
sg50
I71
sg51
I5
sg52
I1
sg53
I1
sg54
I2
sg55
I0
sg56
I0
sg57
I1
sg58
I0
sg59
I0
sg60
I1
sg61
I0
sg62
I2
sg63
I4
sg64
I0
sg65
I41
sg66
I0
sg67
I0
sg68
I0
sg69
I3
sg70
I0
sg71
I0
sg72
I0
sg73
I0
sg74
I2
sg75
I0
sg76
I0
sg77
I0
sg78
I2
sg79
I0
sg80
I0
sg81
I0
sg82
I0
sg83
I0
sg84
I0
sg85
I2
sg86
I0
sg87
I1
sg88
I1
sg89
I0
sg90
I1
sg91
I0
sg92
I0
sg93
I1
sg94
I0
sg95
I0
sg96
I0
sg97
I0
sg98
I0
sg99
I0
sg100
I0
sg101
I2
sg102
I0
sg103
I0
sg104
I1
sg105
I4
sg106
I0
sg107
I0
sg108
I9
sg109
I2
sg110
I0
sg111
I0
sg112
I0
sg113
I0
sg114
I0
sg115
I0
sg116
I0
sg117
I0
sg118
I0
sg119
I2
sg120
I0
sg121
I0
sg122
I16
sg123
I0
sg124
I0
sg125
I0
ssg66
(dp189
g1
I84
sg3
I3
sg4
I1
sg5
I0
sg6
I10
sg7
I14
sg8
I2
sg9
I0
sg10
I2
sg11
I1
sg12
I0
sg13
I0
sg14
I1
sg15
I19
sg16
I0
sg17
I35
sg18
I2
sg19
I1
sg20
I21
sg21
I0
sg22
I29
sg23
I0
sg24
I0
sg25
I45
sg26
I0
sg27
I214
sg28
I0
sg29
I0
sg30
I5
sg31
I18
sg32
I0
sg33
I8
sg34
I1
sg35
I9
sg36
I47
sg37
I0
sg38
I0
sg39
I1
sg40
I0
sg41
I13
sg42
I14
sg43
I13
sg44
I2
sg45
I1
sg46
I16
sg47
I0
sg48
I8
sg49
I8
sg50
I709
sg51
I23
sg52
I5
sg53
I21
sg54
I9
sg55
I17
sg56
I13
sg57
I12
sg58
I0
sg59
I4
sg60
I13
sg61
I1
sg62
I8
sg63
I46
sg64
I1
sg65
I0
sg66
I209
sg67
I0
sg68
I0
sg69
I25
sg70
I0
sg71
I2
sg72
I12
sg73
I1
sg74
I15
sg75
I3
sg76
I3
sg77
I1
sg78
I23
sg79
I3
sg80
I0
sg81
I0
sg82
I3
sg83
I0
sg84
I2
sg85
I13
sg86
I12
sg87
I1
sg88
I2
sg89
I4
sg90
I19
sg91
I0
sg92
I0
sg93
I2
sg94
I4
sg95
I0
sg96
I0
sg97
I7
sg98
I0
sg99
I0
sg100
I0
sg101
I32
sg102
I0
sg103
I3
sg104
I2
sg105
I29
sg106
I0
sg107
I0
sg108
I79
sg109
I24
sg110
I0
sg111
I1
sg112
I0
sg113
I0
sg114
I5
sg115
I0
sg116
I0
sg117
I0
sg118
I2
sg119
I7
sg120
I9
sg121
I0
sg122
I207
sg123
I10
sg124
I1
sg125
I1
ssg67
(dp190
g1
I0
sg3
I0
sg4
I0
sg5
I0
sg6
I0
sg7
I0
sg8
I0
sg9
I0
sg10
I0
sg11
I0
sg12
I0
sg13
I0
sg14
I0
sg15
I0
sg16
I0
sg17
I0
sg18
I0
sg19
I0
sg20
I0
sg21
I0
sg22
I0
sg23
I0
sg24
I0
sg25
I0
sg26
I0
sg27
I0
sg28
I0
sg29
I0
sg30
I0
sg31
I0
sg32
I0
sg33
I0
sg34
I0
sg35
I0
sg36
I0
sg37
I0
sg38
I0
sg39
I0
sg40
I0
sg41
I0
sg42
I0
sg43
I0
sg44
I0
sg45
I0
sg46
I0
sg47
I0
sg48
I0
sg49
I0
sg50
I0
sg51
I0
sg52
I0
sg53
I0
sg54
I0
sg55
I0
sg56
I0
sg57
I0
sg58
I0
sg59
I0
sg60
I0
sg61
I0
sg62
I0
sg63
I0
sg64
I0
sg65
I0
sg66
I0
sg67
I0
sg68
I0
sg69
I0
sg70
I0
sg71
I0
sg72
I0
sg73
I0
sg74
I0
sg75
I0
sg76
I0
sg77
I0
sg78
I0
sg79
I0
sg80
I0
sg81
I0
sg82
I0
sg83
I0
sg84
I0
sg85
I0
sg86
I0
sg87
I0
sg88
I0
sg89
I0
sg90
I0
sg91
I0
sg92
I0
sg93
I0
sg94
I0
sg95
I0
sg96
I0
sg97
I0
sg98
I0
sg99
I0
sg100
I0
sg101
I0
sg102
I0
sg103
I0
sg104
I0
sg105
I0
sg106
I0
sg107
I0
sg108
I0
sg109
I0
sg110
I0
sg111
I0
sg112
I0
sg113
I0
sg114
I0
sg115
I0
sg116
I0
sg117
I0
sg118
I0
sg119
I0
sg120
I0
sg121
I0
sg122
I0
sg123
I0
sg124
I0
sg125
I0
ssg68
(dp191
g1
I0
sg3
I0
sg4
I0
sg5
I0
sg6
I1
sg7
I0
sg8
I0
sg9
I0
sg10
I0
sg11
I0
sg12
I0
sg13
I0
sg14
I0
sg15
I0
sg16
I0
sg17
I0
sg18
I0
sg19
I0
sg20
I1
sg21
I0
sg22
I2
sg23
I0
sg24
I0
sg25
I2
sg26
I0
sg27
I4
sg28
I0
sg29
I0
sg30
I0
sg31
I0
sg32
I0
sg33
I0
sg34
I0
sg35
I0
sg36
I0
sg37
I0
sg38
I0
sg39
I0
sg40
I0
sg41
I0
sg42
I0
sg43
I0
sg44
I1
sg45
I0
sg46
I0
sg47
I0
sg48
I1
sg49
I0
sg50
I24
sg51
I0
sg52
I0
sg53
I1
sg54
I0
sg55
I0
sg56
I0
sg57
I0
sg58
I0
sg59
I1
sg60
I1
sg61
I0
sg62
I0
sg63
I0
sg64
I0
sg65
I0
sg66
I0
sg67
I0
sg68
I8
sg69
I0
sg70
I0
sg71
I0
sg72
I0
sg73
I0
sg74
I0
sg75
I0
sg76
I0
sg77
I0
sg78
I0
sg79
I0
sg80
I0
sg81
I0
sg82
I0
sg83
I0
sg84
I0
sg85
I0
sg86
I1
sg87
I0
sg88
I0
sg89
I0
sg90
I0
sg91
I0
sg92
I0
sg93
I0
sg94
I0
sg95
I0
sg96
I0
sg97
I0
sg98
I1
sg99
I0
sg100
I0
sg101
I1
sg102
I0
sg103
I1
sg104
I0
sg105
I1
sg106
I0
sg107
I0
sg108
I1
sg109
I0
sg110
I0
sg111
I0
sg112
I0
sg113
I0
sg114
I0
sg115
I0
sg116
I0
sg117
I0
sg118
I0
sg119
I0
sg120
I0
sg121
I0
sg122
I1
sg123
I0
sg124
I0
sg125
I0
ssg69
(dp192
g1
I1101
sg3
I64
sg4
I18
sg5
I7
sg6
I109
sg7
I128
sg8
I13
sg9
I3
sg10
I5
sg11
I27
sg12
I0
sg13
I4
sg14
I23
sg15
I286
sg16
I0
sg17
I567
sg18
I9
sg19
I6
sg20
I201
sg21
I1
sg22
I308
sg23
I13
sg24
I0
sg25
I746
sg26
I2
sg27
I3694
sg28
I19
sg29
I25
sg30
I52
sg31
I206
sg32
I7
sg33
I99
sg34
I0
sg35
I90
sg36
I603
sg37
I1
sg38
I0
sg39
I21
sg40
I1
sg41
I242
sg42
I191
sg43
I246
sg44
I33
sg45
I11
sg46
I245
sg47
I1
sg48
I94
sg49
I75
sg50
I8355
sg51
I469
sg52
I64
sg53
I385
sg54
I101
sg55
I220
sg56
I180
sg57
I308
sg58
I26
sg59
I69
sg60
I186
sg61
I11
sg62
I95
sg63
I408
sg64
I8
sg65
I3
sg66
I13
sg67
I0
sg68
I2
sg69
I2882
sg70
I37
sg71
I8
sg72
I173
sg73
I71
sg74
I169
sg75
I10
sg76
I36
sg77
I17
sg78
I273
sg79
I52
sg80
I0
sg81
I2
sg82
I65
sg83
I0
sg84
I22
sg85
I241
sg86
I171
sg87
I21
sg88
I35
sg89
I73
sg90
I268
sg91
I0
sg92
I0
sg93
I23
sg94
I34
sg95
I13
sg96
I0
sg97
I55
sg98
I46
sg99
I7
sg100
I0
sg101
I449
sg102
I1
sg103
I66
sg104
I19
sg105
I484
sg106
I0
sg107
I4
sg108
I1318
sg109
I404
sg110
I0
sg111
I13
sg112
I1
sg113
I0
sg114
I40
sg115
I0
sg116
I9
sg117
I3
sg118
I15
sg119
I95
sg120
I117
sg121
I4
sg122
I3286
sg123
I117
sg124
I3
sg125
I2
ssg70
(dp193
g1
I74
sg3
I4
sg4
I0
sg5
I1
sg6
I16
sg7
I7
sg8
I0
sg9
I0
sg10
I1
sg11
I5
sg12
I0
sg13
I0
sg14
I3
sg15
I17
sg16
I0
sg17
I49
sg18
I1
sg19
I0
sg20
I9
sg21
I0
sg22
I47
sg23
I0
sg24
I0
sg25
I60
sg26
I0
sg27
I313
sg28
I2
sg29
I4
sg30
I9
sg31
I28
sg32
I0
sg33
I13
sg34
I0
sg35
I8
sg36
I37
sg37
I0
sg38
I0
sg39
I4
sg40
I0
sg41
I11
sg42
I10
sg43
I21
sg44
I6
sg45
I0
sg46
I13
sg47
I0
sg48
I7
sg49
I9
sg50
I457
sg51
I16
sg52
I9
sg53
I39
sg54
I5
sg55
I11
sg56
I17
sg57
I19
sg58
I1
sg59
I11
sg60
I6
sg61
I0
sg62
I5
sg63
I18
sg64
I1
sg65
I0
sg66
I2
sg67
I0
sg68
I0
sg69
I10
sg70
I251
sg71
I0
sg72
I18
sg73
I7
sg74
I28
sg75
I0
sg76
I3
sg77
I1
sg78
I18
sg79
I4
sg80
I0
sg81
I4
sg82
I2
sg83
I0
sg84
I6
sg85
I13
sg86
I28
sg87
I0
sg88
I2
sg89
I6
sg90
I14
sg91
I0
sg92
I0
sg93
I2
sg94
I1
sg95
I0
sg96
I0
sg97
I6
sg98
I6
sg99
I0
sg100
I0
sg101
I28
sg102
I0
sg103
I13
sg104
I3
sg105
I22
sg106
I0
sg107
I0
sg108
I74
sg109
I28
sg110
I0
sg111
I1
sg112
I0
sg113
I0
sg114
I3
sg115
I0
sg116
I1
sg117
I0
sg118
I2
sg119
I8
sg120
I7
sg121
I0
sg122
I186
sg123
I10
sg124
I0
sg125
I0
ssg71
(dp194
g1
I40
sg3
I1
sg4
I0
sg5
I0
sg6
I3
sg7
I5
sg8
I1
sg9
I0
sg10
I0
sg11
I0
sg12
I0
sg13
I1
sg14
I1
sg15
I8
sg16
I0
sg17
I7
sg18
I2
sg19
I0
sg20
I2
sg21
I0
sg22
I4
sg23
I0
sg24
I0
sg25
I17
sg26
I0
sg27
I75
sg28
I0
sg29
I2
sg30
I2
sg31
I6
sg32
I0
sg33
I4
sg34
I0
sg35
I2
sg36
I12
sg37
I0
sg38
I0
sg39
I2
sg40
I0
sg41
I5
sg42
I2
sg43
I10
sg44
I0
sg45
I1
sg46
I9
sg47
I0
sg48
I1
sg49
I2
sg50
I231
sg51
I6
sg52
I6
sg53
I7
sg54
I0
sg55
I5
sg56
I4
sg57
I7
sg58
I1
sg59
I2
sg60
I2
sg61
I0
sg62
I2
sg63
I7
sg64
I0
sg65
I0
sg66
I0
sg67
I0
sg68
I0
sg69
I8
sg70
I1
sg71
I104
sg72
I6
sg73
I2
sg74
I7
sg75
I0
sg76
I0
sg77
I0
sg78
I7
sg79
I1
sg80
I0
sg81
I0
sg82
I0
sg83
I0
sg84
I2
sg85
I6
sg86
I3
sg87
I0
sg88
I1
sg89
I1
sg90
I5
sg91
I0
sg92
I0
sg93
I1
sg94
I0
sg95
I0
sg96
I0
sg97
I2
sg98
I2
sg99
I0
sg100
I0
sg101
I15
sg102
I0
sg103
I0
sg104
I1
sg105
I4
sg106
I0
sg107
I0
sg108
I24
sg109
I11
sg110
I0
sg111
I1
sg112
I0
sg113
I0
sg114
I0
sg115
I0
sg116
I0
sg117
I1
sg118
I0
sg119
I1
sg120
I0
sg121
I3
sg122
I52
sg123
I0
sg124
I0
sg125
I0
ssg72
(dp195
g1
I1062
sg3
I82
sg4
I6
sg5
I6
sg6
I155
sg7
I139
sg8
I8
sg9
I2
sg10
I9
sg11
I22
sg12
I0
sg13
I2
sg14
I29
sg15
I417
sg16
I1
sg17
I633
sg18
I15
sg19
I12
sg20
I198
sg21
I0
sg22
I390
sg23
I12
sg24
I0
sg25
I852
sg26
I1
sg27
I4294
sg28
I14
sg29
I34
sg30
I71
sg31
I278
sg32
I7
sg33
I119
sg34
I0
sg35
I142
sg36
I771
sg37
I1
sg38
I0
sg39
I21
sg40
I0
sg41
I247
sg42
I192
sg43
I375
sg44
I41
sg45
I18
sg46
I342
sg47
I1
sg48
I122
sg49
I126
sg50
I7952
sg51
I560
sg52
I99
sg53
I551
sg54
I144
sg55
I258
sg56
I196
sg57
I283
sg58
I16
sg59
I124
sg60
I231
sg61
I9
sg62
I158
sg63
I456
sg64
I9
sg65
I2
sg66
I17
sg67
I0
sg68
I2
sg69
I241
sg70
I35
sg71
I11
sg72
I3186
sg73
I80
sg74
I273
sg75
I13
sg76
I50
sg77
I7
sg78
I348
sg79
I65
sg80
I0
sg81
I4
sg82
I96
sg83
I2
sg84
I48
sg85
I296
sg86
I235
sg87
I20
sg88
I30
sg89
I68
sg90
I316
sg91
I0
sg92
I1
sg93
I22
sg94
I41
sg95
I6
sg96
I0
sg97
I59
sg98
I80
sg99
I1
sg100
I0
sg101
I516
sg102
I0
sg103
I56
sg104
I15
sg105
I512
sg106
I1
sg107
I2
sg108
I1783
sg109
I560
sg110
I0
sg111
I15
sg112
I0
sg113
I0
sg114
I45
sg115
I0
sg116
I17
sg117
I1
sg118
I15
sg119
I84
sg120
I113
sg121
I13
sg122
I3114
sg123
I123
sg124
I7
sg125
I1
ssg73
(dp196
g1
I393
sg3
I43
sg4
I8
sg5
I1
sg6
I87
sg7
I53
sg8
I3
sg9
I1
sg10
I7
sg11
I17
sg12
I0
sg13
I5
sg14
I15
sg15
I178
sg16
I0
sg17
I219
sg18
I7
sg19
I2
sg20
I99
sg21
I0
sg22
I190
sg23
I3
sg24
I0
sg25
I276
sg26
I0
sg27
I2144
sg28
I14
sg29
I14
sg30
I42
sg31
I109
sg32
I1
sg33
I60
sg34
I0
sg35
I45
sg36
I296
sg37
I0
sg38
I0
sg39
I7
sg40
I0
sg41
I110
sg42
I91
sg43
I149
sg44
I22
sg45
I6
sg46
I180
sg47
I0
sg48
I51
sg49
I48
sg50
I2965
sg51
I211
sg52
I60
sg53
I263
sg54
I58
sg55
I150
sg56
I101
sg57
I111
sg58
I5
sg59
I47
sg60
I77
sg61
I2
sg62
I52
sg63
I170
sg64
I6
sg65
I2
sg66
I5
sg67
I0
sg68
I1
sg69
I113
sg70
I16
sg71
I2
sg72
I82
sg73
I1117
sg74
I139
sg75
I4
sg76
I19
sg77
I1
sg78
I138
sg79
I29
sg80
I0
sg81
I2
sg82
I42
sg83
I0
sg84
I18
sg85
I117
sg86
I84
sg87
I11
sg88
I9
sg89
I41
sg90
I121
sg91
I0
sg92
I0
sg93
I14
sg94
I20
sg95
I4
sg96
I0
sg97
I24
sg98
I25
sg99
I2
sg100
I1
sg101
I175
sg102
I0
sg103
I34
sg104
I17
sg105
I229
sg106
I1
sg107
I1
sg108
I618
sg109
I218
sg110
I0
sg111
I10
sg112
I0
sg113
I0
sg114
I26
sg115
I1
sg116
I3
sg117
I2
sg118
I10
sg119
I36
sg120
I34
sg121
I4
sg122
I1342
sg123
I45
sg124
I2
sg125
I0
ssg74
(dp197
g1
I458
sg3
I41
sg4
I8
sg5
I3
sg6
I127
sg7
I69
sg8
I3
sg9
I2
sg10
I8
sg11
I25
sg12
I0
sg13
I3
sg14
I11
sg15
I142
sg16
I0
sg17
I260
sg18
I12
sg19
I2
sg20
I100
sg21
I4
sg22
I321
sg23
I9
sg24
I0
sg25
I370
sg26
I0
sg27
I2756
sg28
I10
sg29
I26
sg30
I29
sg31
I139
sg32
I4
sg33
I111
sg34
I0
sg35
I45
sg36
I249
sg37
I1
sg38
I1
sg39
I5
sg40
I0
sg41
I76
sg42
I101
sg43
I129
sg44
I21
sg45
I5
sg46
I145
sg47
I0
sg48
I44
sg49
I108
sg50
I3013
sg51
I158
sg52
I69
sg53
I178
sg54
I55
sg55
I128
sg56
I89
sg57
I172
sg58
I10
sg59
I72
sg60
I52
sg61
I6
sg62
I47
sg63
I203
sg64
I9
sg65
I4
sg66
I10
sg67
I0
sg68
I1
sg69
I106
sg70
I30
sg71
I7
sg72
I89
sg73
I39
sg74
I2924
sg75
I10
sg76
I20
sg77
I6
sg78
I105
sg79
I32
sg80
I1
sg81
I8
sg82
I33
sg83
I0
sg84
I30
sg85
I119
sg86
I160
sg87
I15
sg88
I21
sg89
I32
sg90
I81
sg91
I0
sg92
I0
sg93
I14
sg94
I34
sg95
I10
sg96
I0
sg97
I25
sg98
I24
sg99
I3
sg100
I0
sg101
I199
sg102
I0
sg103
I65
sg104
I17
sg105
I216
sg106
I1
sg107
I3
sg108
I569
sg109
I182
sg110
I0
sg111
I14
sg112
I0
sg113
I0
sg114
I21
sg115
I0
sg116
I6
sg117
I4
sg118
I20
sg119
I51
sg120
I90
sg121
I5
sg122
I1154
sg123
I65
sg124
I4
sg125
I2
ssg75
(dp198
g1
I34
sg3
I1
sg4
I0
sg5
I0
sg6
I8
sg7
I3
sg8
I0
sg9
I0
sg10
I1
sg11
I0
sg12
I0
sg13
I1
sg14
I3
sg15
I7
sg16
I1
sg17
I19
sg18
I0
sg19
I1
sg20
I4
sg21
I1
sg22
I22
sg23
I1
sg24
I0
sg25
I10
sg26
I0
sg27
I182
sg28
I1
sg29
I2
sg30
I1
sg31
I10
sg32
I0
sg33
I7
sg34
I0
sg35
I4
sg36
I38
sg37
I0
sg38
I0
sg39
I0
sg40
I0
sg41
I6
sg42
I6
sg43
I7
sg44
I1
sg45
I0
sg46
I9
sg47
I0
sg48
I2
sg49
I9
sg50
I243
sg51
I18
sg52
I2
sg53
I15
sg54
I9
sg55
I7
sg56
I12
sg57
I10
sg58
I1
sg59
I0
sg60
I8
sg61
I1
sg62
I6
sg63
I28
sg64
I0
sg65
I0
sg66
I1
sg67
I0
sg68
I0
sg69
I6
sg70
I1
sg71
I0
sg72
I6
sg73
I1
sg74
I16
sg75
I138
sg76
I1
sg77
I0
sg78
I3
sg79
I4
sg80
I0
sg81
I0
sg82
I0
sg83
I0
sg84
I2
sg85
I8
sg86
I12
sg87
I0
sg88
I3
sg89
I4
sg90
I9
sg91
I0
sg92
I0
sg93
I1
sg94
I0
sg95
I0
sg96
I0
sg97
I4
sg98
I3
sg99
I0
sg100
I0
sg101
I22
sg102
I0
sg103
I2
sg104
I1
sg105
I11
sg106
I0
sg107
I0
sg108
I46
sg109
I18
sg110
I0
sg111
I1
sg112
I0
sg113
I0
sg114
I1
sg115
I0
sg116
I1
sg117
I0
sg118
I1
sg119
I4
sg120
I6
sg121
I0
sg122
I78
sg123
I7
sg124
I0
sg125
I0
ssg76
(dp199
g1
I302
sg3
I12
sg4
I4
sg5
I1
sg6
I25
sg7
I36
sg8
I6
sg9
I0
sg10
I0
sg11
I9
sg12
I0
sg13
I0
sg14
I3
sg15
I51
sg16
I0
sg17
I107
sg18
I5
sg19
I0
sg20
I49
sg21
I0
sg22
I41
sg23
I2
sg24
I0
sg25
I139
sg26
I0
sg27
I485
sg28
I5
sg29
I8
sg30
I9
sg31
I30
sg32
I1
sg33
I18
sg34
I0
sg35
I15
sg36
I102
sg37
I0
sg38
I0
sg39
I2
sg40
I0
sg41
I35
sg42
I29
sg43
I41
sg44
I2
sg45
I7
sg46
I39
sg47
I1
sg48
I13
sg49
I29
sg50
I1816
sg51
I81
sg52
I13
sg53
I54
sg54
I11
sg55
I46
sg56
I38
sg57
I71
sg58
I5
sg59
I16
sg60
I23
sg61
I1
sg62
I22
sg63
I117
sg64
I0
sg65
I0
sg66
I5
sg67
I0
sg68
I1
sg69
I35
sg70
I7
sg71
I5
sg72
I20
sg73
I12
sg74
I37
sg75
I5
sg76
I512
sg77
I3
sg78
I32
sg79
I9
sg80
I0
sg81
I1
sg82
I8
sg83
I0
sg84
I10
sg85
I39
sg86
I44
sg87
I6
sg88
I3
sg89
I13
sg90
I43
sg91
I0
sg92
I1
sg93
I4
sg94
I2
sg95
I1
sg96
I0
sg97
I8
sg98
I7
sg99
I2
sg100
I0
sg101
I63
sg102
I0
sg103
I7
sg104
I5
sg105
I51
sg106
I0
sg107
I0
sg108
I209
sg109
I64
sg110
I0
sg111
I2
sg112
I0
sg113
I0
sg114
I14
sg115
I0
sg116
I4
sg117
I1
sg118
I1
sg119
I24
sg120
I12
sg121
I0
sg122
I481
sg123
I16
sg124
I0
sg125
I0
ssg77
(dp200
g1
I9
sg3
I1
sg4
I0
sg5
I0
sg6
I2
sg7
I1
sg8
I0
sg9
I0
sg10
I0
sg11
I1
sg12
I0
sg13
I0
sg14
I0
sg15
I1
sg16
I0
sg17
I2
sg18
I0
sg19
I0
sg20
I0
sg21
I0
sg22
I0
sg23
I0
sg24
I0
sg25
I10
sg26
I0
sg27
I11
sg28
I0
sg29
I0
sg30
I0
sg31
I1
sg32
I0
sg33
I0
sg34
I0
sg35
I0
sg36
I5
sg37
I0
sg38
I0
sg39
I1
sg40
I0
sg41
I2
sg42
I2
sg43
I1
sg44
I0
sg45
I0
sg46
I2
sg47
I0
sg48
I0
sg49
I1
sg50
I73
sg51
I4
sg52
I0
sg53
I2
sg54
I1
sg55
I2
sg56
I3
sg57
I1
sg58
I1
sg59
I0
sg60
I2
sg61
I0
sg62
I0
sg63
I2
sg64
I0
sg65
I0
sg66
I0
sg67
I0
sg68
I0
sg69
I2
sg70
I0
sg71
I0
sg72
I0
sg73
I1
sg74
I0
sg75
I0
sg76
I0
sg77
I35
sg78
I3
sg79
I0
sg80
I0
sg81
I0
sg82
I3
sg83
I0
sg84
I2
sg85
I1
sg86
I2
sg87
I1
sg88
I0
sg89
I0
sg90
I2
sg91
I0
sg92
I0
sg93
I0
sg94
I0
sg95
I0
sg96
I0
sg97
I0
sg98
I0
sg99
I0
sg100
I0
sg101
I3
sg102
I0
sg103
I0
sg104
I0
sg105
I2
sg106
I0
sg107
I0
sg108
I6
sg109
I1
sg110
I0
sg111
I0
sg112
I0
sg113
I0
sg114
I0
sg115
I0
sg116
I0
sg117
I0
sg118
I0
sg119
I2
sg120
I0
sg121
I0
sg122
I15
sg123
I0
sg124
I0
sg125
I0
ssg78
(dp201
g1
I1359
sg3
I84
sg4
I23
sg5
I5
sg6
I195
sg7
I158
sg8
I10
sg9
I5
sg10
I7
sg11
I38
sg12
I1
sg13
I5
sg14
I32
sg15
I464
sg16
I0
sg17
I914
sg18
I14
sg19
I6
sg20
I216
sg21
I4
sg22
I456
sg23
I6
sg24
I0
sg25
I1029
sg26
I1
sg27
I5667
sg28
I29
sg29
I56
sg30
I66
sg31
I330
sg32
I5
sg33
I149
sg34
I0
sg35
I126
sg36
I868
sg37
I5
sg38
I0
sg39
I17
sg40
I0
sg41
I363
sg42
I258
sg43
I380
sg44
I60
sg45
I18
sg46
I365
sg47
I1
sg48
I166
sg49
I145
sg50
I9700
sg51
I656
sg52
I115
sg53
I578
sg54
I177
sg55
I384
sg56
I230
sg57
I454
sg58
I19
sg59
I147
sg60
I211
sg61
I7
sg62
I119
sg63
I555
sg64
I10
sg65
I5
sg66
I18
sg67
I0
sg68
I1
sg69
I348
sg70
I51
sg71
I9
sg72
I288
sg73
I83
sg74
I285
sg75
I15
sg76
I54
sg77
I4
sg78
I4662
sg79
I72
sg80
I1
sg81
I1
sg82
I88
sg83
I0
sg84
I64
sg85
I359
sg86
I275
sg87
I27
sg88
I33
sg89
I92
sg90
I404
sg91
I0
sg92
I0
sg93
I23
sg94
I45
sg95
I7
sg96
I0
sg97
I73
sg98
I60
sg99
I5
sg100
I1
sg101
I607
sg102
I3
sg103
I83
sg104
I25
sg105
I665
sg106
I3
sg107
I6
sg108
I2027
sg109
I521
sg110
I0
sg111
I18
sg112
I0
sg113
I1
sg114
I60
sg115
I0
sg116
I15
sg117
I0
sg118
I18
sg119
I88
sg120
I132
sg121
I8
sg122
I4282
sg123
I158
sg124
I5
sg125
I1
ssg79
(dp202
g1
I252
sg3
I7
sg4
I10
sg5
I1
sg6
I25
sg7
I24
sg8
I1
sg9
I0
sg10
I1
sg11
I6
sg12
I0
sg13
I1
sg14
I5
sg15
I61
sg16
I0
sg17
I113
sg18
I3
sg19
I0
sg20
I47
sg21
I0
sg22
I76
sg23
I0
sg24
I1
sg25
I234
sg26
I0
sg27
I821
sg28
I0
sg29
I10
sg30
I11
sg31
I46
sg32
I0
sg33
I23
sg34
I0
sg35
I12
sg36
I90
sg37
I0
sg38
I0
sg39
I3
sg40
I0
sg41
I49
sg42
I59
sg43
I62
sg44
I3
sg45
I3
sg46
I51
sg47
I0
sg48
I20
sg49
I34
sg50
I1788
sg51
I84
sg52
I25
sg53
I76
sg54
I15
sg55
I57
sg56
I37
sg57
I46
sg58
I5
sg59
I27
sg60
I39
sg61
I0
sg62
I39
sg63
I82
sg64
I1
sg65
I1
sg66
I4
sg67
I0
sg68
I0
sg69
I33
sg70
I9
sg71
I4
sg72
I27
sg73
I12
sg74
I35
sg75
I2
sg76
I10
sg77
I2
sg78
I47
sg79
I902
sg80
I0
sg81
I0
sg82
I31
sg83
I0
sg84
I9
sg85
I56
sg86
I61
sg87
I1
sg88
I2
sg89
I21
sg90
I39
sg91
I0
sg92
I0
sg93
I5
sg94
I7
sg95
I2
sg96
I0
sg97
I13
sg98
I26
sg99
I3
sg100
I0
sg101
I75
sg102
I0
sg103
I15
sg104
I2
sg105
I81
sg106
I0
sg107
I0
sg108
I258
sg109
I64
sg110
I0
sg111
I3
sg112
I0
sg113
I0
sg114
I8
sg115
I0
sg116
I2
sg117
I0
sg118
I7
sg119
I21
sg120
I24
sg121
I0
sg122
I606
sg123
I20
sg124
I3
sg125
I0
ssg80
(dp203
g1
I2
sg3
I0
sg4
I1
sg5
I0
sg6
I0
sg7
I0
sg8
I0
sg9
I0
sg10
I0
sg11
I0
sg12
I0
sg13
I0
sg14
I0
sg15
I1
sg16
I0
sg17
I4
sg18
I0
sg19
I0
sg20
I2
sg21
I0
sg22
I3
sg23
I0
sg24
I0
sg25
I2
sg26
I0
sg27
I19
sg28
I0
sg29
I0
sg30
I0
sg31
I0
sg32
I0
sg33
I1
sg34
I0
sg35
I0
sg36
I3
sg37
I0
sg38
I0
sg39
I0
sg40
I0
sg41
I1
sg42
I0
sg43
I0
sg44
I0
sg45
I0
sg46
I2
sg47
I0
sg48
I0
sg49
I2
sg50
I24
sg51
I1
sg52
I0
sg53
I0
sg54
I0
sg55
I2
sg56
I1
sg57
I0
sg58
I0
sg59
I2
sg60
I0
sg61
I0
sg62
I1
sg63
I4
sg64
I0
sg65
I0
sg66
I0
sg67
I0
sg68
I0
sg69
I2
sg70
I0
sg71
I0
sg72
I0
sg73
I0
sg74
I2
sg75
I0
sg76
I1
sg77
I0
sg78
I2
sg79
I0
sg80
I15
sg81
I0
sg82
I0
sg83
I0
sg84
I1
sg85
I1
sg86
I0
sg87
I0
sg88
I0
sg89
I1
sg90
I0
sg91
I0
sg92
I0
sg93
I0
sg94
I1
sg95
I0
sg96
I0
sg97
I0
sg98
I0
sg99
I0
sg100
I0
sg101
I2
sg102
I0
sg103
I0
sg104
I0
sg105
I1
sg106
I0
sg107
I0
sg108
I3
sg109
I2
sg110
I0
sg111
I0
sg112
I0
sg113
I0
sg114
I0
sg115
I0
sg116
I0
sg117
I0
sg118
I0
sg119
I0
sg120
I0
sg121
I0
sg122
I8
sg123
I0
sg124
I0
sg125
I0
ssg81
(dp204
g1
I17
sg3
I1
sg4
I0
sg5
I0
sg6
I6
sg7
I2
sg8
I0
sg9
I0
sg10
I0
sg11
I2
sg12
I0
sg13
I0
sg14
I0
sg15
I1
sg16
I0
sg17
I10
sg18
I0
sg19
I1
sg20
I1
sg21
I0
sg22
I18
sg23
I1
sg24
I0
sg25
I10
sg26
I0
sg27
I58
sg28
I0
sg29
I1
sg30
I4
sg31
I5
sg32
I0
sg33
I1
sg34
I0
sg35
I0
sg36
I6
sg37
I0
sg38
I0
sg39
I0
sg40
I0
sg41
I3
sg42
I2
sg43
I3
sg44
I2
sg45
I0
sg46
I4
sg47
I0
sg48
I0
sg49
I9
sg50
I103
sg51
I7
sg52
I4
sg53
I0
sg54
I3
sg55
I2
sg56
I2
sg57
I3
sg58
I0
sg59
I2
sg60
I3
sg61
I1
sg62
I0
sg63
I5
sg64
I0
sg65
I0
sg66
I1
sg67
I0
sg68
I0
sg69
I5
sg70
I0
sg71
I1
sg72
I1
sg73
I0
sg74
I3
sg75
I0
sg76
I0
sg77
I0
sg78
I4
sg79
I0
sg80
I0
sg81
I37
sg82
I2
sg83
I0
sg84
I0
sg85
I4
sg86
I4
sg87
I1
sg88
I0
sg89
I1
sg90
I2
sg91
I0
sg92
I0
sg93
I0
sg94
I0
sg95
I1
sg96
I0
sg97
I0
sg98
I1
sg99
I0
sg100
I0
sg101
I6
sg102
I0
sg103
I3
sg104
I0
sg105
I3
sg106
I0
sg107
I0
sg108
I20
sg109
I0
sg110
I0
sg111
I0
sg112
I0
sg113
I0
sg114
I0
sg115
I0
sg116
I0
sg117
I0
sg118
I2
sg119
I2
sg120
I3
sg121
I0
sg122
I42
sg123
I1
sg124
I0
sg125
I0
ssg82
(dp205
g1
I310
sg3
I10
sg4
I46
sg5
I1
sg6
I54
sg7
I39
sg8
I1
sg9
I1
sg10
I3
sg11
I10
sg12
I0
sg13
I1
sg14
I10
sg15
I68
sg16
I0
sg17
I162
sg18
I7
sg19
I0
sg20
I87
sg21
I0
sg22
I110
sg23
I0
sg24
I0
sg25
I356
sg26
I0
sg27
I1392
sg28
I3
sg29
I12
sg30
I38
sg31
I51
sg32
I1
sg33
I30
sg34
I0
sg35
I19
sg36
I156
sg37
I0
sg38
I0
sg39
I8
sg40
I0
sg41
I54
sg42
I82
sg43
I173
sg44
I13
sg45
I1
sg46
I65
sg47
I0
sg48
I32
sg49
I52
sg50
I2455
sg51
I124
sg52
I36
sg53
I136
sg54
I34
sg55
I66
sg56
I40
sg57
I60
sg58
I9
sg59
I48
sg60
I45
sg61
I3
sg62
I68
sg63
I106
sg64
I2
sg65
I0
sg66
I5
sg67
I0
sg68
I1
sg69
I73
sg70
I7
sg71
I3
sg72
I53
sg73
I12
sg74
I73
sg75
I7
sg76
I13
sg77
I1
sg78
I70
sg79
I29
sg80
I0
sg81
I2
sg82
I743
sg83
I0
sg84
I15
sg85
I55
sg86
I79
sg87
I4
sg88
I6
sg89
I19
sg90
I69
sg91
I0
sg92
I0
sg93
I5
sg94
I19
sg95
I3
sg96
I0
sg97
I13
sg98
I32
sg99
I1
sg100
I1
sg101
I115
sg102
I0
sg103
I21
sg104
I3
sg105
I121
sg106
I0
sg107
I0
sg108
I383
sg109
I108
sg110
I0
sg111
I4
sg112
I0
sg113
I0
sg114
I11
sg115
I0
sg116
I4
sg117
I0
sg118
I4
sg119
I28
sg120
I39
sg121
I2
sg122
I679
sg123
I31
sg124
I1
sg125
I0
ssg83
(dp206
g1
I0
sg3
I0
sg4
I0
sg5
I0
sg6
I0
sg7
I0
sg8
I0
sg9
I0
sg10
I0
sg11
I0
sg12
I0
sg13
I0
sg14
I0
sg15
I0
sg16
I0
sg17
I0
sg18
I0
sg19
I0
sg20
I0
sg21
I0
sg22
I0
sg23
I0
sg24
I0
sg25
I0
sg26
I0
sg27
I0
sg28
I0
sg29
I0
sg30
I0
sg31
I0
sg32
I0
sg33
I0
sg34
I0
sg35
I0
sg36
I0
sg37
I0
sg38
I0
sg39
I0
sg40
I0
sg41
I0
sg42
I0
sg43
I0
sg44
I0
sg45
I0
sg46
I0
sg47
I0
sg48
I0
sg49
I0
sg50
I0
sg51
I0
sg52
I0
sg53
I0
sg54
I0
sg55
I0
sg56
I0
sg57
I0
sg58
I0
sg59
I0
sg60
I0
sg61
I0
sg62
I0
sg63
I0
sg64
I0
sg65
I0
sg66
I0
sg67
I0
sg68
I0
sg69
I0
sg70
I0
sg71
I0
sg72
I0
sg73
I0
sg74
I0
sg75
I0
sg76
I0
sg77
I0
sg78
I0
sg79
I0
sg80
I0
sg81
I0
sg82
I0
sg83
I0
sg84
I0
sg85
I0
sg86
I0
sg87
I0
sg88
I0
sg89
I0
sg90
I0
sg91
I0
sg92
I0
sg93
I0
sg94
I0
sg95
I0
sg96
I0
sg97
I0
sg98
I0
sg99
I0
sg100
I0
sg101
I0
sg102
I0
sg103
I0
sg104
I0
sg105
I0
sg106
I0
sg107
I0
sg108
I0
sg109
I0
sg110
I0
sg111
I0
sg112
I0
sg113
I0
sg114
I0
sg115
I0
sg116
I0
sg117
I0
sg118
I0
sg119
I0
sg120
I0
sg121
I0
sg122
I0
sg123
I0
sg124
I0
sg125
I0
ssg84
(dp207
g1
I140
sg3
I4
sg4
I2
sg5
I0
sg6
I30
sg7
I18
sg8
I2
sg9
I0
sg10
I1
sg11
I4
sg12
I0
sg13
I0
sg14
I1
sg15
I25
sg16
I0
sg17
I75
sg18
I3
sg19
I0
sg20
I17
sg21
I0
sg22
I55
sg23
I1
sg24
I0
sg25
I106
sg26
I0
sg27
I652
sg28
I7
sg29
I4
sg30
I6
sg31
I39
sg32
I0
sg33
I29
sg34
I0
sg35
I15
sg36
I62
sg37
I0
sg38
I0
sg39
I1
sg40
I0
sg41
I28
sg42
I33
sg43
I20
sg44
I4
sg45
I3
sg46
I43
sg47
I0
sg48
I7
sg49
I19
sg50
I1022
sg51
I58
sg52
I8
sg53
I41
sg54
I13
sg55
I40
sg56
I17
sg57
I51
sg58
I4
sg59
I22
sg60
I12
sg61
I3
sg62
I11
sg63
I56
sg64
I0
sg65
I1
sg66
I1
sg67
I0
sg68
I0
sg69
I23
sg70
I7
sg71
I0
sg72
I25
sg73
I9
sg74
I63
sg75
I1
sg76
I4
sg77
I1
sg78
I41
sg79
I3
sg80
I0
sg81
I3
sg82
I9
sg83
I0
sg84
I356
sg85
I43
sg86
I40
sg87
I9
sg88
I2
sg89
I16
sg90
I30
sg91
I0
sg92
I1
sg93
I3
sg94
I4
sg95
I1
sg96
I0
sg97
I6
sg98
I8
sg99
I0
sg100
I0
sg101
I45
sg102
I0
sg103
I13
sg104
I0
sg105
I52
sg106
I0
sg107
I0
sg108
I144
sg109
I59
sg110
I0
sg111
I1
sg112
I0
sg113
I0
sg114
I4
sg115
I0
sg116
I4
sg117
I0
sg118
I1
sg119
I9
sg120
I11
sg121
I0
sg122
I405
sg123
I17
sg124
I0
sg125
I1
ssg85
(dp208
g1
I1468
sg3
I82
sg4
I9
sg5
I7
sg6
I149
sg7
I154
sg8
I18
sg9
I8
sg10
I7
sg11
I24
sg12
I0
sg13
I7
sg14
I30
sg15
I361
sg16
I2
sg17
I704
sg18
I13
sg19
I3
sg20
I280
sg21
I5
sg22
I448
sg23
I7
sg24
I0
sg25
I1061
sg26
I1
sg27
I4546
sg28
I20
sg29
I36
sg30
I62
sg31
I290
sg32
I2
sg33
I112
sg34
I0
sg35
I122
sg36
I660
sg37
I4
sg38
I1
sg39
I18
sg40
I0
sg41
I356
sg42
I263
sg43
I336
sg44
I47
sg45
I20
sg46
I290
sg47
I1
sg48
I152
sg49
I116
sg50
I10879
sg51
I648
sg52
I93
sg53
I441
sg54
I147
sg55
I331
sg56
I199
sg57
I445
sg58
I19
sg59
I117
sg60
I210
sg61
I15
sg62
I141
sg63
I462
sg64
I12
sg65
I6
sg66
I19
sg67
I0
sg68
I2
sg69
I288
sg70
I37
sg71
I7
sg72
I236
sg73
I71
sg74
I274
sg75
I18
sg76
I40
sg77
I5
sg78
I409
sg79
I59
sg80
I1
sg81
I10
sg82
I82
sg83
I0
sg84
I52
sg85
I3756
sg86
I254
sg87
I46
sg88
I21
sg89
I91
sg90
I367
sg91
I1
sg92
I2
sg93
I24
sg94
I58
sg95
I7
sg96
I0
sg97
I57
sg98
I55
sg99
I3
sg100
I0
sg101
I512
sg102
I2
sg103
I68
sg104
I27
sg105
I621
sg106
I0
sg107
I8
sg108
I1679
sg109
I469
sg110
I0
sg111
I22
sg112
I0
sg113
I0
sg114
I65
sg115
I1
sg116
I21
sg117
I5
sg118
I28
sg119
I111
sg120
I123
sg121
I10
sg122
I4065
sg123
I132
sg124
I10
sg125
I0
ssg86
(dp209
g1
I485
sg3
I30
sg4
I16
sg5
I2
sg6
I150
sg7
I49
sg8
I5
sg9
I2
sg10
I3
sg11
I21
sg12
I0
sg13
I2
sg14
I14
sg15
I125
sg16
I0
sg17
I238
sg18
I21
sg19
I9
sg20
I145
sg21
I0
sg22
I285
sg23
I3
sg24
I0
sg25
I640
sg26
I1
sg27
I2774
sg28
I9
sg29
I16
sg30
I31
sg31
I102
sg32
I12
sg33
I105
sg34
I0
sg35
I37
sg36
I209
sg37
I0
sg38
I2
sg39
I10
sg40
I0
sg41
I85
sg42
I135
sg43
I160
sg44
I7
sg45
I6
sg46
I101
sg47
I0
sg48
I39
sg49
I165
sg50
I3682
sg51
I169
sg52
I81
sg53
I130
sg54
I56
sg55
I115
sg56
I72
sg57
I117
sg58
I11
sg59
I138
sg60
I48
sg61
I4
sg62
I60
sg63
I166
sg64
I2
sg65
I2
sg66
I11
sg67
I0
sg68
I1
sg69
I86
sg70
I22
sg71
I4
sg72
I68
sg73
I23
sg74
I139
sg75
I15
sg76
I16
sg77
I1
sg78
I95
sg79
I37
sg80
I4
sg81
I5
sg82
I47
sg83
I0
sg84
I13
sg85
I121
sg86
I2225
sg87
I10
sg88
I15
sg89
I35
sg90
I94
sg91
I0
sg92
I0
sg93
I8
sg94
I22
sg95
I5
sg96
I0
sg97
I26
sg98
I43
sg99
I2
sg100
I0
sg101
I181
sg102
I1
sg103
I62
sg104
I18
sg105
I170
sg106
I0
sg107
I3
sg108
I480
sg109
I131
sg110
I0
sg111
I11
sg112
I0
sg113
I0
sg114
I14
sg115
I0
sg116
I9
sg117
I2
sg118
I12
sg119
I60
sg120
I55
sg121
I0
sg122
I1235
sg123
I68
sg124
I1
sg125
I3
ssg87
(dp210
g1
I56
sg3
I4
sg4
I0
sg5
I2
sg6
I16
sg7
I7
sg8
I1
sg9
I0
sg10
I0
sg11
I1
sg12
I0
sg13
I0
sg14
I1
sg15
I39
sg16
I0
sg17
I46
sg18
I3
sg19
I1
sg20
I12
sg21
I0
sg22
I31
sg23
I1
sg24
I0
sg25
I52
sg26
I0
sg27
I395
sg28
I3
sg29
I6
sg30
I2
sg31
I19
sg32
I1
sg33
I10
sg34
I0
sg35
I5
sg36
I55
sg37
I0
sg38
I0
sg39
I2
sg40
I0
sg41
I13
sg42
I10
sg43
I22
sg44
I0
sg45
I2
sg46
I24
sg47
I0
sg48
I4
sg49
I7
sg50
I484
sg51
I41
sg52
I2
sg53
I45
sg54
I9
sg55
I26
sg56
I15
sg57
I17
sg58
I2
sg59
I8
sg60
I14
sg61
I0
sg62
I13
sg63
I35
sg64
I1
sg65
I1
sg66
I3
sg67
I0
sg68
I0
sg69
I17
sg70
I4
sg71
I1
sg72
I11
sg73
I7
sg74
I17
sg75
I0
sg76
I3
sg77
I0
sg78
I26
sg79
I2
sg80
I0
sg81
I0
sg82
I4
sg83
I0
sg84
I3
sg85
I17
sg86
I15
sg87
I267
sg88
I4
sg89
I5
sg90
I15
sg91
I0
sg92
I0
sg93
I5
sg94
I4
sg95
I0
sg96
I0
sg97
I6
sg98
I1
sg99
I0
sg100
I0
sg101
I39
sg102
I0
sg103
I5
sg104
I0
sg105
I40
sg106
I0
sg107
I0
sg108
I127
sg109
I35
sg110
I0
sg111
I2
sg112
I0
sg113
I0
sg114
I5
sg115
I0
sg116
I1
sg117
I0
sg118
I0
sg119
I7
sg120
I12
sg121
I1
sg122
I198
sg123
I6
sg124
I1
sg125
I0
ssg88
(dp211
g1
I82
sg3
I9
sg4
I2
sg5
I0
sg6
I15
sg7
I16
sg8
I1
sg9
I0
sg10
I1
sg11
I4
sg12
I0
sg13
I1
sg14
I3
sg15
I38
sg16
I0
sg17
I56
sg18
I6
sg19
I0
sg20
I18
sg21
I0
sg22
I55
sg23
I2
sg24
I0
sg25
I44
sg26
I0
sg27
I445
sg28
I2
sg29
I3
sg30
I4
sg31
I35
sg32
I2
sg33
I27
sg34
I0
sg35
I8
sg36
I73
sg37
I0
sg38
I0
sg39
I3
sg40
I0
sg41
I17
sg42
I15
sg43
I18
sg44
I0
sg45
I1
sg46
I21
sg47
I0
sg48
I6
sg49
I28
sg50
I657
sg51
I44
sg52
I10
sg53
I26
sg54
I13
sg55
I26
sg56
I18
sg57
I19
sg58
I1
sg59
I17
sg60
I10
sg61
I2
sg62
I7
sg63
I61
sg64
I1
sg65
I0
sg66
I4
sg67
I0
sg68
I0
sg69
I29
sg70
I6
sg71
I1
sg72
I15
sg73
I3
sg74
I35
sg75
I0
sg76
I7
sg77
I0
sg78
I23
sg79
I4
sg80
I0
sg81
I2
sg82
I2
sg83
I0
sg84
I5
sg85
I21
sg86
I36
sg87
I1
sg88
I306
sg89
I1
sg90
I23
sg91
I0
sg92
I0
sg93
I3
sg94
I6
sg95
I1
sg96
I0
sg97
I5
sg98
I7
sg99
I0
sg100
I0
sg101
I53
sg102
I1
sg103
I16
sg104
I5
sg105
I27
sg106
I0
sg107
I1
sg108
I120
sg109
I36
sg110
I0
sg111
I1
sg112
I0
sg113
I0
sg114
I5
sg115
I1
sg116
I2
sg117
I0
sg118
I5
sg119
I14
sg120
I24
sg121
I1
sg122
I288
sg123
I17
sg124
I0
sg125
I2
ssg89
(dp212
g1
I363
sg3
I11
sg4
I3
sg5
I4
sg6
I51
sg7
I31
sg8
I3
sg9
I2
sg10
I4
sg11
I12
sg12
I0
sg13
I3
sg14
I8
sg15
I115
sg16
I1
sg17
I194
sg18
I3
sg19
I5
sg20
I85
sg21
I2
sg22
I151
sg23
I2
sg24
I0
sg25
I231
sg26
I0
sg27
I1610
sg28
I5
sg29
I9
sg30
I21
sg31
I79
sg32
I2
sg33
I37
sg34
I0
sg35
I39
sg36
I223
sg37
I0
sg38
I1
sg39
I7
sg40
I0
sg41
I80
sg42
I66
sg43
I83
sg44
I10
sg45
I4
sg46
I118
sg47
I0
sg48
I22
sg49
I48
sg50
I2699
sg51
I145
sg52
I24
sg53
I135
sg54
I38
sg55
I90
sg56
I52
sg57
I116
sg58
I11
sg59
I50
sg60
I62
sg61
I2
sg62
I31
sg63
I151
sg64
I1
sg65
I2
sg66
I11
sg67
I0
sg68
I0
sg69
I85
sg70
I18
sg71
I2
sg72
I62
sg73
I29
sg74
I77
sg75
I4
sg76
I6
sg77
I3
sg78
I99
sg79
I17
sg80
I0
sg81
I0
sg82
I15
sg83
I0
sg84
I14
sg85
I90
sg86
I88
sg87
I12
sg88
I19
sg89
I813
sg90
I89
sg91
I0
sg92
I0
sg93
I23
sg94
I14
sg95
I3
sg96
I0
sg97
I17
sg98
I15
sg99
I1
sg100
I0
sg101
I164
sg102
I0
sg103
I27
sg104
I13
sg105
I160
sg106
I0
sg107
I1
sg108
I543
sg109
I158
sg110
I0
sg111
I7
sg112
I0
sg113
I0
sg114
I17
sg115
I0
sg116
I7
sg117
I0
sg118
I6
sg119
I38
sg120
I25
sg121
I4
sg122
I1089
sg123
I40
sg124
I3
sg125
I0
ssg90
(dp213
g1
I2247
sg3
I131
sg4
I29
sg5
I9
sg6
I287
sg7
I233
sg8
I24
sg9
I9
sg10
I11
sg11
I53
sg12
I0
sg13
I7
sg14
I57
sg15
I699
sg16
I2
sg17
I1254
sg18
I20
sg19
I8
sg20
I356
sg21
I3
sg22
I664
sg23
I12
sg24
I0
sg25
I1613
sg26
I0
sg27
I8246
sg28
I33
sg29
I55
sg30
I105
sg31
I461
sg32
I14
sg33
I217
sg34
I0
sg35
I215
sg36
I1484
sg37
I4
sg38
I0
sg39
I25
sg40
I0
sg41
I550
sg42
I429
sg43
I688
sg44
I71
sg45
I22
sg46
I549
sg47
I1
sg48
I240
sg49
I197
sg50
I15955
sg51
I996
sg52
I144
sg53
I841
sg54
I223
sg55
I544
sg56
I328
sg57
I614
sg58
I27
sg59
I186
sg60
I391
sg61
I15
sg62
I235
sg63
I776
sg64
I16
sg65
I10
sg66
I17
sg67
I0
sg68
I5
sg69
I514
sg70
I60
sg71
I8
sg72
I451
sg73
I134
sg74
I502
sg75
I28
sg76
I52
sg77
I14
sg78
I666
sg79
I97
sg80
I0
sg81
I13
sg82
I141
sg83
I0
sg84
I89
sg85
I616
sg86
I354
sg87
I57
sg88
I73
sg89
I140
sg90
I5451
sg91
I0
sg92
I0
sg93
I42
sg94
I69
sg95
I15
sg96
I0
sg97
I92
sg98
I112
sg99
I5
sg100
I1
sg101
I862
sg102
I3
sg103
I123
sg104
I38
sg105
I1037
sg106
I1
sg107
I4
sg108
I3317
sg109
I884
sg110
I0
sg111
I40
sg112
I0
sg113
I1
sg114
I90
sg115
I1
sg116
I24
sg117
I3
sg118
I30
sg119
I162
sg120
I220
sg121
I7
sg122
I6333
sg123
I209
sg124
I14
sg125
I1
ssg91
(dp214
g1
I0
sg3
I0
sg4
I0
sg5
I0
sg6
I0
sg7
I0
sg8
I0
sg9
I0
sg10
I0
sg11
I0
sg12
I0
sg13
I0
sg14
I0
sg15
I0
sg16
I0
sg17
I0
sg18
I0
sg19
I0
sg20
I0
sg21
I0
sg22
I0
sg23
I0
sg24
I0
sg25
I0
sg26
I0
sg27
I0
sg28
I0
sg29
I0
sg30
I0
sg31
I0
sg32
I0
sg33
I0
sg34
I0
sg35
I0
sg36
I0
sg37
I0
sg38
I0
sg39
I0
sg40
I0
sg41
I0
sg42
I0
sg43
I0
sg44
I0
sg45
I0
sg46
I0
sg47
I0
sg48
I0
sg49
I0
sg50
I0
sg51
I0
sg52
I0
sg53
I0
sg54
I0
sg55
I0
sg56
I0
sg57
I0
sg58
I0
sg59
I0
sg60
I0
sg61
I0
sg62
I0
sg63
I0
sg64
I0
sg65
I0
sg66
I0
sg67
I0
sg68
I0
sg69
I0
sg70
I0
sg71
I0
sg72
I0
sg73
I0
sg74
I0
sg75
I0
sg76
I0
sg77
I0
sg78
I0
sg79
I0
sg80
I0
sg81
I0
sg82
I0
sg83
I0
sg84
I0
sg85
I0
sg86
I0
sg87
I0
sg88
I0
sg89
I0
sg90
I0
sg91
I0
sg92
I0
sg93
I0
sg94
I0
sg95
I0
sg96
I0
sg97
I0
sg98
I0
sg99
I0
sg100
I0
sg101
I0
sg102
I0
sg103
I0
sg104
I0
sg105
I0
sg106
I0
sg107
I0
sg108
I0
sg109
I0
sg110
I0
sg111
I0
sg112
I0
sg113
I0
sg114
I0
sg115
I0
sg116
I0
sg117
I0
sg118
I0
sg119
I0
sg120
I0
sg121
I0
sg122
I0
sg123
I0
sg124
I0
sg125
I0
ssg92
(dp215
g1
I1
sg3
I0
sg4
I0
sg5
I0
sg6
I0
sg7
I0
sg8
I0
sg9
I0
sg10
I0
sg11
I0
sg12
I0
sg13
I0
sg14
I0
sg15
I0
sg16
I0
sg17
I0
sg18
I0
sg19
I0
sg20
I0
sg21
I0
sg22
I0
sg23
I0
sg24
I0
sg25
I0
sg26
I0
sg27
I0
sg28
I0
sg29
I0
sg30
I0
sg31
I0
sg32
I0
sg33
I0
sg34
I0
sg35
I0
sg36
I0
sg37
I0
sg38
I0
sg39
I0
sg40
I0
sg41
I0
sg42
I0
sg43
I0
sg44
I0
sg45
I0
sg46
I0
sg47
I0
sg48
I0
sg49
I0
sg50
I4
sg51
I0
sg52
I0
sg53
I0
sg54
I0
sg55
I0
sg56
I0
sg57
I0
sg58
I0
sg59
I0
sg60
I0
sg61
I0
sg62
I0
sg63
I0
sg64
I0
sg65
I0
sg66
I0
sg67
I0
sg68
I0
sg69
I0
sg70
I0
sg71
I0
sg72
I0
sg73
I0
sg74
I0
sg75
I0
sg76
I0
sg77
I0
sg78
I0
sg79
I0
sg80
I0
sg81
I0
sg82
I0
sg83
I0
sg84
I0
sg85
I0
sg86
I0
sg87
I0
sg88
I0
sg89
I0
sg90
I0
sg91
I0
sg92
I7
sg93
I0
sg94
I0
sg95
I0
sg96
I0
sg97
I0
sg98
I0
sg99
I0
sg100
I0
sg101
I0
sg102
I0
sg103
I0
sg104
I0
sg105
I0
sg106
I0
sg107
I0
sg108
I1
sg109
I0
sg110
I0
sg111
I0
sg112
I0
sg113
I0
sg114
I0
sg115
I0
sg116
I0
sg117
I0
sg118
I0
sg119
I0
sg120
I0
sg121
I0
sg122
I1
sg123
I0
sg124
I0
sg125
I0
ssg93
(dp216
g1
I256
sg3
I9
sg4
I5
sg5
I2
sg6
I30
sg7
I32
sg8
I4
sg9
I2
sg10
I3
sg11
I2
sg12
I0
sg13
I3
sg14
I1
sg15
I63
sg16
I0
sg17
I89
sg18
I2
sg19
I0
sg20
I49
sg21
I0
sg22
I61
sg23
I3
sg24
I0
sg25
I151
sg26
I0
sg27
I589
sg28
I3
sg29
I7
sg30
I4
sg31
I35
sg32
I0
sg33
I19
sg34
I0
sg35
I22
sg36
I120
sg37
I0
sg38
I0
sg39
I6
sg40
I0
sg41
I27
sg42
I28
sg43
I37
sg44
I4
sg45
I5
sg46
I48
sg47
I0
sg48
I18
sg49
I22
sg50
I1852
sg51
I90
sg52
I11
sg53
I64
sg54
I23
sg55
I33
sg56
I48
sg57
I58
sg58
I2
sg59
I19
sg60
I23
sg61
I2
sg62
I16
sg63
I122
sg64
I2
sg65
I2
sg66
I3
sg67
I0
sg68
I0
sg69
I45
sg70
I6
sg71
I2
sg72
I33
sg73
I17
sg74
I45
sg75
I2
sg76
I13
sg77
I1
sg78
I49
sg79
I11
sg80
I0
sg81
I2
sg82
I15
sg83
I0
sg84
I14
sg85
I61
sg86
I50
sg87
I6
sg88
I5
sg89
I13
sg90
I50
sg91
I0
sg92
I1
sg93
I417
sg94
I7
sg95
I0
sg96
I0
sg97
I14
sg98
I11
sg99
I0
sg100
I0
sg101
I88
sg102
I0
sg103
I12
sg104
I6
sg105
I74
sg106
I0
sg107
I3
sg108
I213
sg109
I79
sg110
I0
sg111
I6
sg112
I0
sg113
I0
sg114
I5
sg115
I0
sg116
I3
sg117
I1
sg118
I4
sg119
I25
sg120
I17
sg121
I3
sg122
I540
sg123
I21
sg124
I1
sg125
I0
ssg94
(dp217
g1
I87
sg3
I8
sg4
I1
sg5
I1
sg6
I28
sg7
I10
sg8
I2
sg9
I0
sg10
I2
sg11
I7
sg12
I0
sg13
I0
sg14
I7
sg15
I35
sg16
I0
sg17
I69
sg18
I0
sg19
I0
sg20
I17
sg21
I0
sg22
I46
sg23
I1
sg24
I0
sg25
I66
sg26
I0
sg27
I537
sg28
I1
sg29
I2
sg30
I3
sg31
I27
sg32
I1
sg33
I19
sg34
I0
sg35
I8
sg36
I45
sg37
I0
sg38
I0
sg39
I1
sg40
I0
sg41
I17
sg42
I16
sg43
I16
sg44
I2
sg45
I6
sg46
I28
sg47
I0
sg48
I11
sg49
I17
sg50
I662
sg51
I34
sg52
I15
sg53
I17
sg54
I19
sg55
I33
sg56
I12
sg57
I28
sg58
I1
sg59
I17
sg60
I9
sg61
I1
sg62
I5
sg63
I32
sg64
I1
sg65
I0
sg66
I0
sg67
I0
sg68
I0
sg69
I25
sg70
I3
sg71
I1
sg72
I21
sg73
I6
sg74
I29
sg75
I1
sg76
I2
sg77
I2
sg78
I23
sg79
I4
sg80
I0
sg81
I1
sg82
I8
sg83
I0
sg84
I4
sg85
I21
sg86
I29
sg87
I2
sg88
I5
sg89
I5
sg90
I22
sg91
I0
sg92
I0
sg93
I5
sg94
I441
sg95
I0
sg96
I0
sg97
I6
sg98
I7
sg99
I1
sg100
I0
sg101
I38
sg102
I0
sg103
I13
sg104
I5
sg105
I31
sg106
I0
sg107
I0
sg108
I102
sg109
I47
sg110
I0
sg111
I0
sg112
I0
sg113
I0
sg114
I6
sg115
I0
sg116
I3
sg117
I0
sg118
I1
sg119
I10
sg120
I17
sg121
I0
sg122
I286
sg123
I8
sg124
I1
sg125
I0
ssg95
(dp218
g1
I36
sg3
I1
sg4
I1
sg5
I1
sg6
I8
sg7
I3
sg8
I0
sg9
I0
sg10
I0
sg11
I2
sg12
I0
sg13
I0
sg14
I0
sg15
I13
sg16
I0
sg17
I16
sg18
I0
sg19
I0
sg20
I6
sg21
I0
sg22
I22
sg23
I0
sg24
I0
sg25
I29
sg26
I0
sg27
I210
sg28
I2
sg29
I2
sg30
I4
sg31
I4
sg32
I0
sg33
I5
sg34
I0
sg35
I1
sg36
I37
sg37
I0
sg38
I0
sg39
I0
sg40
I0
sg41
I4
sg42
I10
sg43
I8
sg44
I2
sg45
I1
sg46
I6
sg47
I0
sg48
I0
sg49
I4
sg50
I157
sg51
I10
sg52
I3
sg53
I15
sg54
I2
sg55
I7
sg56
I8
sg57
I6
sg58
I2
sg59
I4
sg60
I4
sg61
I0
sg62
I4
sg63
I13
sg64
I1
sg65
I0
sg66
I1
sg67
I0
sg68
I0
sg69
I8
sg70
I2
sg71
I0
sg72
I4
sg73
I0
sg74
I12
sg75
I0
sg76
I1
sg77
I0
sg78
I8
sg79
I3
sg80
I0
sg81
I0
sg82
I2
sg83
I0
sg84
I1
sg85
I4
sg86
I15
sg87
I1
sg88
I2
sg89
I1
sg90
I13
sg91
I0
sg92
I0
sg93
I2
sg94
I4
sg95
I76
sg96
I0
sg97
I2
sg98
I5
sg99
I1
sg100
I0
sg101
I15
sg102
I0
sg103
I5
sg104
I2
sg105
I14
sg106
I0
sg107
I0
sg108
I39
sg109
I17
sg110
I0
sg111
I0
sg112
I0
sg113
I0
sg114
I0
sg115
I0
sg116
I0
sg117
I1
sg118
I2
sg119
I2
sg120
I4
sg121
I0
sg122
I57
sg123
I4
sg124
I0
sg125
I0
ssg96
(dp219
g1
I0
sg3
I0
sg4
I0
sg5
I0
sg6
I0
sg7
I0
sg8
I0
sg9
I0
sg10
I0
sg11
I0
sg12
I0
sg13
I0
sg14
I0
sg15
I0
sg16
I0
sg17
I0
sg18
I0
sg19
I0
sg20
I0
sg21
I0
sg22
I0
sg23
I0
sg24
I0
sg25
I0
sg26
I0
sg27
I0
sg28
I0
sg29
I0
sg30
I0
sg31
I0
sg32
I0
sg33
I0
sg34
I0
sg35
I0
sg36
I0
sg37
I0
sg38
I0
sg39
I0
sg40
I0
sg41
I0
sg42
I0
sg43
I0
sg44
I0
sg45
I0
sg46
I0
sg47
I0
sg48
I0
sg49
I0
sg50
I0
sg51
I0
sg52
I0
sg53
I0
sg54
I0
sg55
I0
sg56
I0
sg57
I0
sg58
I0
sg59
I0
sg60
I0
sg61
I0
sg62
I0
sg63
I0
sg64
I0
sg65
I0
sg66
I0
sg67
I0
sg68
I0
sg69
I0
sg70
I0
sg71
I0
sg72
I0
sg73
I0
sg74
I0
sg75
I0
sg76
I0
sg77
I0
sg78
I0
sg79
I0
sg80
I0
sg81
I0
sg82
I0
sg83
I0
sg84
I0
sg85
I0
sg86
I0
sg87
I0
sg88
I0
sg89
I0
sg90
I0
sg91
I0
sg92
I0
sg93
I0
sg94
I0
sg95
I0
sg96
I0
sg97
I0
sg98
I0
sg99
I0
sg100
I0
sg101
I0
sg102
I0
sg103
I0
sg104
I0
sg105
I0
sg106
I0
sg107
I0
sg108
I0
sg109
I0
sg110
I0
sg111
I0
sg112
I0
sg113
I0
sg114
I0
sg115
I0
sg116
I0
sg117
I0
sg118
I0
sg119
I0
sg120
I0
sg121
I0
sg122
I0
sg123
I0
sg124
I0
sg125
I0
ssg97
(dp220
g1
I251
sg3
I16
sg4
I1
sg5
I1
sg6
I19
sg7
I37
sg8
I4
sg9
I0
sg10
I4
sg11
I5
sg12
I0
sg13
I0
sg14
I2
sg15
I41
sg16
I0
sg17
I100
sg18
I6
sg19
I0
sg20
I40
sg21
I0
sg22
I75
sg23
I1
sg24
I0
sg25
I120
sg26
I0
sg27
I508
sg28
I0
sg29
I6
sg30
I12
sg31
I34
sg32
I0
sg33
I12
sg34
I0
sg35
I13
sg36
I103
sg37
I1
sg38
I0
sg39
I5
sg40
I0
sg41
I32
sg42
I31
sg43
I51
sg44
I3
sg45
I5
sg46
I36
sg47
I0
sg48
I18
sg49
I17
sg50
I1736
sg51
I64
sg52
I15
sg53
I51
sg54
I16
sg55
I47
sg56
I27
sg57
I38
sg58
I6
sg59
I18
sg60
I22
sg61
I0
sg62
I25
sg63
I94
sg64
I3
sg65
I1
sg66
I7
sg67
I0
sg68
I1
sg69
I46
sg70
I7
sg71
I4
sg72
I31
sg73
I3
sg74
I38
sg75
I2
sg76
I17
sg77
I1
sg78
I43
sg79
I6
sg80
I0
sg81
I2
sg82
I15
sg83
I0
sg84
I4
sg85
I52
sg86
I34
sg87
I4
sg88
I6
sg89
I9
sg90
I35
sg91
I0
sg92
I1
sg93
I8
sg94
I3
sg95
I1
sg96
I0
sg97
I583
sg98
I10
sg99
I0
sg100
I0
sg101
I53
sg102
I0
sg103
I10
sg104
I5
sg105
I71
sg106
I0
sg107
I0
sg108
I193
sg109
I63
sg110
I0
sg111
I4
sg112
I0
sg113
I0
sg114
I4
sg115
I0
sg116
I3
sg117
I1
sg118
I3
sg119
I25
sg120
I22
sg121
I1
sg122
I461
sg123
I10
sg124
I2
sg125
I2
ssg98
(dp221
g1
I140
sg3
I6
sg4
I0
sg5
I0
sg6
I31
sg7
I12
sg8
I2
sg9
I0
sg10
I0
sg11
I1
sg12
I0
sg13
I0
sg14
I3
sg15
I43
sg16
I0
sg17
I61
sg18
I0
sg19
I0
sg20
I32
sg21
I0
sg22
I42
sg23
I1
sg24
I0
sg25
I89
sg26
I0
sg27
I594
sg28
I1
sg29
I1
sg30
I24
sg31
I28
sg32
I1
sg33
I17
sg34
I0
sg35
I14
sg36
I79
sg37
I2
sg38
I0
sg39
I0
sg40
I0
sg41
I20
sg42
I28
sg43
I73
sg44
I3
sg45
I1
sg46
I28
sg47
I0
sg48
I7
sg49
I28
sg50
I937
sg51
I43
sg52
I14
sg53
I47
sg54
I10
sg55
I27
sg56
I13
sg57
I11
sg58
I1
sg59
I17
sg60
I13
sg61
I1
sg62
I19
sg63
I59
sg64
I0
sg65
I0
sg66
I0
sg67
I0
sg68
I1
sg69
I32
sg70
I0
sg71
I0
sg72
I21
sg73
I9
sg74
I23
sg75
I2
sg76
I2
sg77
I0
sg78
I31
sg79
I7
sg80
I0
sg81
I0
sg82
I8
sg83
I0
sg84
I3
sg85
I30
sg86
I32
sg87
I2
sg88
I4
sg89
I5
sg90
I25
sg91
I0
sg92
I1
sg93
I6
sg94
I4
sg95
I1
sg96
I0
sg97
I5
sg98
I607
sg99
I0
sg100
I0
sg101
I49
sg102
I0
sg103
I13
sg104
I2
sg105
I51
sg106
I0
sg107
I0
sg108
I125
sg109
I43
sg110
I0
sg111
I0
sg112
I0
sg113
I0
sg114
I3
sg115
I0
sg116
I0
sg117
I1
sg118
I4
sg119
I13
sg120
I11
sg121
I1
sg122
I206
sg123
I13
sg124
I1
sg125
I0
ssg99
(dp222
g1
I17
sg3
I2
sg4
I1
sg5
I0
sg6
I3
sg7
I4
sg8
I0
sg9
I0
sg10
I0
sg11
I0
sg12
I0
sg13
I0
sg14
I0
sg15
I10
sg16
I0
sg17
I13
sg18
I0
sg19
I0
sg20
I3
sg21
I0
sg22
I9
sg23
I0
sg24
I0
sg25
I10
sg26
I0
sg27
I67
sg28
I0
sg29
I2
sg30
I3
sg31
I3
sg32
I1
sg33
I1
sg34
I0
sg35
I1
sg36
I13
sg37
I0
sg38
I0
sg39
I2
sg40
I0
sg41
I2
sg42
I2
sg43
I8
sg44
I0
sg45
I0
sg46
I4
sg47
I0
sg48
I1
sg49
I4
sg50
I213
sg51
I6
sg52
I2
sg53
I4
sg54
I0
sg55
I8
sg56
I8
sg57
I4
sg58
I2
sg59
I3
sg60
I1
sg61
I0
sg62
I2
sg63
I8
sg64
I1
sg65
I0
sg66
I0
sg67
I0
sg68
I0
sg69
I4
sg70
I2
sg71
I0
sg72
I3
sg73
I3
sg74
I3
sg75
I1
sg76
I2
sg77
I0
sg78
I3
sg79
I0
sg80
I0
sg81
I0
sg82
I1
sg83
I0
sg84
I0
sg85
I2
sg86
I3
sg87
I0
sg88
I1
sg89
I3
sg90
I9
sg91
I0
sg92
I0
sg93
I1
sg94
I0
sg95
I0
sg96
I0
sg97
I4
sg98
I3
sg99
I45
sg100
I0
sg101
I8
sg102
I0
sg103
I1
sg104
I2
sg105
I6
sg106
I0
sg107
I0
sg108
I26
sg109
I7
sg110
I0
sg111
I0
sg112
I0
sg113
I0
sg114
I1
sg115
I0
sg116
I0
sg117
I0
sg118
I0
sg119
I4
sg120
I1
sg121
I2
sg122
I56
sg123
I3
sg124
I0
sg125
I0
ssg100
(dp223
g1
I0
sg3
I0
sg4
I0
sg5
I0
sg6
I0
sg7
I0
sg8
I0
sg9
I0
sg10
I0
sg11
I0
sg12
I0
sg13
I0
sg14
I0
sg15
I0
sg16
I0
sg17
I0
sg18
I0
sg19
I0
sg20
I0
sg21
I0
sg22
I0
sg23
I0
sg24
I0
sg25
I1
sg26
I0
sg27
I2
sg28
I0
sg29
I0
sg30
I0
sg31
I0
sg32
I0
sg33
I0
sg34
I0
sg35
I0
sg36
I0
sg37
I0
sg38
I0
sg39
I0
sg40
I0
sg41
I0
sg42
I0
sg43
I0
sg44
I0
sg45
I0
sg46
I0
sg47
I0
sg48
I0
sg49
I0
sg50
I5
sg51
I0
sg52
I1
sg53
I0
sg54
I0
sg55
I0
sg56
I0
sg57
I0
sg58
I0
sg59
I0
sg60
I0
sg61
I0
sg62
I0
sg63
I0
sg64
I0
sg65
I0
sg66
I0
sg67
I0
sg68
I0
sg69
I0
sg70
I0
sg71
I0
sg72
I0
sg73
I0
sg74
I0
sg75
I0
sg76
I0
sg77
I0
sg78
I0
sg79
I0
sg80
I0
sg81
I0
sg82
I0
sg83
I0
sg84
I0
sg85
I0
sg86
I0
sg87
I0
sg88
I0
sg89
I0
sg90
I0
sg91
I0
sg92
I0
sg93
I0
sg94
I0
sg95
I0
sg96
I0
sg97
I0
sg98
I0
sg99
I0
sg100
I2
sg101
I2
sg102
I0
sg103
I0
sg104
I0
sg105
I1
sg106
I0
sg107
I0
sg108
I0
sg109
I1
sg110
I0
sg111
I0
sg112
I0
sg113
I0
sg114
I0
sg115
I0
sg116
I0
sg117
I0
sg118
I0
sg119
I0
sg120
I1
sg121
I0
sg122
I4
sg123
I0
sg124
I0
sg125
I0
ssg101
(dp224
g1
I1790
sg3
I117
sg4
I33
sg5
I8
sg6
I316
sg7
I227
sg8
I22
sg9
I8
sg10
I22
sg11
I49
sg12
I1
sg13
I10
sg14
I57
sg15
I744
sg16
I2
sg17
I1122
sg18
I18
sg19
I14
sg20
I295
sg21
I6
sg22
I827
sg23
I16
sg24
I0
sg25
I1222
sg26
I0
sg27
I8242
sg28
I31
sg29
I108
sg30
I119
sg31
I474
sg32
I20
sg33
I292
sg34
I1
sg35
I183
sg36
I1424
sg37
I4
sg38
I0
sg39
I25
sg40
I0
sg41
I405
sg42
I374
sg43
I634
sg44
I73
sg45
I13
sg46
I506
sg47
I2
sg48
I205
sg49
I261
sg50
I12935
sg51
I848
sg52
I175
sg53
I804
sg54
I240
sg55
I534
sg56
I358
sg57
I475
sg58
I20
sg59
I213
sg60
I305
sg61
I29
sg62
I216
sg63
I828
sg64
I24
sg65
I11
sg66
I38
sg67
I0
sg68
I2
sg69
I438
sg70
I68
sg71
I19
sg72
I422
sg73
I130
sg74
I491
sg75
I24
sg76
I64
sg77
I16
sg78
I553
sg79
I120
sg80
I1
sg81
I10
sg82
I127
sg83
I0
sg84
I71
sg85
I426
sg86
I429
sg87
I56
sg88
I84
sg89
I133
sg90
I498
sg91
I0
sg92
I1
sg93
I49
sg94
I96
sg95
I14
sg96
I0
sg97
I95
sg98
I128
sg99
I9
sg100
I1
sg101
I6519
sg102
I3
sg103
I153
sg104
I50
sg105
I890
sg106
I1
sg107
I3
sg108
I2750
sg109
I806
sg110
I0
sg111
I31
sg112
I0
sg113
I0
sg114
I94
sg115
I1
sg116
I21
sg117
I5
sg118
I43
sg119
I168
sg120
I204
sg121
I16
sg122
I5229
sg123
I264
sg124
I8
sg125
I3
ssg102
(dp225
g1
I5
sg3
I0
sg4
I0
sg5
I0
sg6
I2
sg7
I1
sg8
I0
sg9
I0
sg10
I1
sg11
I2
sg12
I0
sg13
I0
sg14
I1
sg15
I4
sg16
I0
sg17
I7
sg18
I0
sg19
I0
sg20
I0
sg21
I0
sg22
I3
sg23
I0
sg24
I0
sg25
I1
sg26
I0
sg27
I23
sg28
I0
sg29
I0
sg30
I0
sg31
I1
sg32
I0
sg33
I0
sg34
I0
sg35
I1
sg36
I1
sg37
I0
sg38
I0
sg39
I0
sg40
I0
sg41
I0
sg42
I1
sg43
I0
sg44
I0
sg45
I0
sg46
I0
sg47
I0
sg48
I0
sg49
I1
sg50
I41
sg51
I0
sg52
I0
sg53
I5
sg54
I1
sg55
I1
sg56
I0
sg57
I1
sg58
I0
sg59
I0
sg60
I0
sg61
I0
sg62
I0
sg63
I1
sg64
I0
sg65
I0
sg66
I0
sg67
I0
sg68
I0
sg69
I3
sg70
I0
sg71
I0
sg72
I0
sg73
I0
sg74
I1
sg75
I0
sg76
I0
sg77
I0
sg78
I3
sg79
I0
sg80
I0
sg81
I0
sg82
I1
sg83
I0
sg84
I1
sg85
I2
sg86
I1
sg87
I0
sg88
I0
sg89
I1
sg90
I1
sg91
I0
sg92
I0
sg93
I0
sg94
I1
sg95
I0
sg96
I0
sg97
I0
sg98
I0
sg99
I1
sg100
I0
sg101
I4
sg102
I12
sg103
I0
sg104
I0
sg105
I2
sg106
I0
sg107
I0
sg108
I4
sg109
I4
sg110
I0
sg111
I0
sg112
I0
sg113
I0
sg114
I0
sg115
I0
sg116
I0
sg117
I0
sg118
I0
sg119
I0
sg120
I2
sg121
I0
sg122
I19
sg123
I0
sg124
I0
sg125
I0
ssg103
(dp226
g1
I183
sg3
I12
sg4
I10
sg5
I2
sg6
I104
sg7
I19
sg8
I3
sg9
I1
sg10
I5
sg11
I10
sg12
I0
sg13
I1
sg14
I5
sg15
I68
sg16
I0
sg17
I122
sg18
I5
sg19
I3
sg20
I52
sg21
I2
sg22
I224
sg23
I6
sg24
I0
sg25
I221
sg26
I0
sg27
I1968
sg28
I1
sg29
I16
sg30
I18
sg31
I59
sg32
I15
sg33
I98
sg34
I0
sg35
I25
sg36
I122
sg37
I0
sg38
I1
sg39
I9
sg40
I0
sg41
I32
sg42
I76
sg43
I68
sg44
I6
sg45
I3
sg46
I51
sg47
I0
sg48
I14
sg49
I118
sg50
I1417
sg51
I69
sg52
I42
sg53
I55
sg54
I27
sg55
I61
sg56
I31
sg57
I74
sg58
I6
sg59
I59
sg60
I16
sg61
I6
sg62
I33
sg63
I78
sg64
I1
sg65
I0
sg66
I4
sg67
I0
sg68
I0
sg69
I49
sg70
I10
sg71
I0
sg72
I29
sg73
I9
sg74
I77
sg75
I7
sg76
I12
sg77
I0
sg78
I52
sg79
I20
sg80
I0
sg81
I3
sg82
I21
sg83
I1
sg84
I6
sg85
I33
sg86
I164
sg87
I4
sg88
I5
sg89
I19
sg90
I32
sg91
I0
sg92
I0
sg93
I7
sg94
I12
sg95
I2
sg96
I0
sg97
I22
sg98
I18
sg99
I1
sg100
I0
sg101
I111
sg102
I2
sg103
I747
sg104
I10
sg105
I63
sg106
I0
sg107
I1
sg108
I227
sg109
I69
sg110
I0
sg111
I10
sg112
I0
sg113
I0
sg114
I19
sg115
I0
sg116
I1
sg117
I0
sg118
I15
sg119
I22
sg120
I34
sg121
I2
sg122
I539
sg123
I38
sg124
I3
sg125
I1
ssg104
(dp227
g1
I91
sg3
I5
sg4
I0
sg5
I0
sg6
I5
sg7
I4
sg8
I2
sg9
I1
sg10
I0
sg11
I0
sg12
I0
sg13
I0
sg14
I3
sg15
I25
sg16
I0
sg17
I36
sg18
I0
sg19
I0
sg20
I11
sg21
I0
sg22
I17
sg23
I0
sg24
I0
sg25
I32
sg26
I0
sg27
I221
sg28
I2
sg29
I3
sg30
I7
sg31
I14
sg32
I0
sg33
I15
sg34
I0
sg35
I0
sg36
I43
sg37
I1
sg38
I0
sg39
I0
sg40
I0
sg41
I5
sg42
I6
sg43
I18
sg44
I2
sg45
I0
sg46
I11
sg47
I0
sg48
I5
sg49
I10
sg50
I622
sg51
I22
sg52
I2
sg53
I22
sg54
I13
sg55
I17
sg56
I23
sg57
I8
sg58
I6
sg59
I6
sg60
I10
sg61
I0
sg62
I9
sg63
I43
sg64
I2
sg65
I1
sg66
I0
sg67
I0
sg68
I0
sg69
I15
sg70
I9
sg71
I0
sg72
I17
sg73
I2
sg74
I18
sg75
I0
sg76
I2
sg77
I0
sg78
I13
sg79
I4
sg80
I0
sg81
I0
sg82
I2
sg83
I0
sg84
I0
sg85
I17
sg86
I24
sg87
I1
sg88
I5
sg89
I1
sg90
I15
sg91
I0
sg92
I0
sg93
I5
sg94
I0
sg95
I0
sg96
I0
sg97
I4
sg98
I3
sg99
I0
sg100
I0
sg101
I34
sg102
I1
sg103
I4
sg104
I222
sg105
I24
sg106
I0
sg107
I1
sg108
I64
sg109
I21
sg110
I0
sg111
I1
sg112
I0
sg113
I0
sg114
I4
sg115
I0
sg116
I2
sg117
I1
sg118
I2
sg119
I10
sg120
I11
sg121
I0
sg122
I178
sg123
I10
sg124
I1
sg125
I0
ssg105
(dp228
g1
I2193
sg3
I150
sg4
I23
sg5
I10
sg6
I386
sg7
I256
sg8
I19
sg9
I5
sg10
I22
sg11
I92
sg12
I1
sg13
I14
sg14
I69
sg15
I691
sg16
I0
sg17
I1106
sg18
I15
sg19
I13
sg20
I359
sg21
I5
sg22
I885
sg23
I12
sg24
I0
sg25
I1564
sg26
I0
sg27
I9953
sg28
I30
sg29
I78
sg30
I141
sg31
I489
sg32
I12
sg33
I254
sg34
I0
sg35
I172
sg36
I1251
sg37
I2
sg38
I1
sg39
I38
sg40
I0
sg41
I463
sg42
I443
sg43
I745
sg44
I66
sg45
I18
sg46
I568
sg47
I2
sg48
I193
sg49
I264
sg50
I15730
sg51
I947
sg52
I203
sg53
I870
sg54
I225
sg55
I503
sg56
I325
sg57
I541
sg58
I34
sg59
I262
sg60
I334
sg61
I22
sg62
I273
sg63
I814
sg64
I13
sg65
I3
sg66
I27
sg67
I0
sg68
I0
sg69
I486
sg70
I84
sg71
I25
sg72
I399
sg73
I137
sg74
I607
sg75
I25
sg76
I62
sg77
I13
sg78
I576
sg79
I145
sg80
I5
sg81
I8
sg82
I152
sg83
I0
sg84
I106
sg85
I513
sg86
I464
sg87
I51
sg88
I67
sg89
I129
sg90
I539
sg91
I0
sg92
I0
sg93
I61
sg94
I86
sg95
I20
sg96
I0
sg97
I89
sg98
I120
sg99
I9
sg100
I0
sg101
I892
sg102
I1
sg103
I180
sg104
I37
sg105
I8088
sg106
I2
sg107
I17
sg108
I2971
sg109
I832
sg110
I0
sg111
I31
sg112
I0
sg113
I0
sg114
I92
sg115
I3
sg116
I22
sg117
I7
sg118
I47
sg119
I166
sg120
I239
sg121
I17
sg122
I5895
sg123
I227
sg124
I11
sg125
I1
ssg106
(dp229
g1
I1
sg3
I0
sg4
I0
sg5
I0
sg6
I1
sg7
I2
sg8
I0
sg9
I0
sg10
I0
sg11
I0
sg12
I0
sg13
I0
sg14
I0
sg15
I5
sg16
I0
sg17
I5
sg18
I0
sg19
I0
sg20
I0
sg21
I0
sg22
I3
sg23
I0
sg24
I0
sg25
I3
sg26
I0
sg27
I19
sg28
I0
sg29
I0
sg30
I0
sg31
I2
sg32
I0
sg33
I1
sg34
I0
sg35
I0
sg36
I3
sg37
I0
sg38
I0
sg39
I1
sg40
I0
sg41
I2
sg42
I0
sg43
I0
sg44
I0
sg45
I0
sg46
I1
sg47
I0
sg48
I0
sg49
I0
sg50
I42
sg51
I1
sg52
I0
sg53
I2
sg54
I0
sg55
I1
sg56
I0
sg57
I2
sg58
I0
sg59
I0
sg60
I1
sg61
I0
sg62
I1
sg63
I1
sg64
I0
sg65
I0
sg66
I0
sg67
I0
sg68
I0
sg69
I1
sg70
I2
sg71
I0
sg72
I4
sg73
I1
sg74
I0
sg75
I0
sg76
I1
sg77
I0
sg78
I2
sg79
I0
sg80
I0
sg81
I0
sg82
I0
sg83
I0
sg84
I0
sg85
I2
sg86
I0
sg87
I0
sg88
I1
sg89
I0
sg90
I3
sg91
I0
sg92
I0
sg93
I0
sg94
I0
sg95
I0
sg96
I0
sg97
I1
sg98
I0
sg99
I0
sg100
I0
sg101
I5
sg102
I0
sg103
I1
sg104
I0
sg105
I3
sg106
I8
sg107
I0
sg108
I13
sg109
I5
sg110
I0
sg111
I0
sg112
I0
sg113
I0
sg114
I0
sg115
I0
sg116
I0
sg117
I0
sg118
I0
sg119
I0
sg120
I0
sg121
I0
sg122
I23
sg123
I0
sg124
I0
sg125
I0
ssg107
(dp230
g1
I0
sg3
I0
sg4
I0
sg5
I0
sg6
I0
sg7
I0
sg8
I0
sg9
I0
sg10
I0
sg11
I0
sg12
I0
sg13
I0
sg14
I0
sg15
I0
sg16
I0
sg17
I0
sg18
I0
sg19
I0
sg20
I1
sg21
I0
sg22
I0
sg23
I0
sg24
I0
sg25
I1
sg26
I0
sg27
I1
sg28
I0
sg29
I0
sg30
I0
sg31
I0
sg32
I0
sg33
I0
sg34
I0
sg35
I0
sg36
I0
sg37
I0
sg38
I0
sg39
I0
sg40
I0
sg41
I0
sg42
I0
sg43
I0
sg44
I0
sg45
I0
sg46
I1
sg47
I0
sg48
I0
sg49
I0
sg50
I2
sg51
I0
sg52
I0
sg53
I0
sg54
I0
sg55
I0
sg56
I0
sg57
I0
sg58
I0
sg59
I0
sg60
I0
sg61
I0
sg62
I0
sg63
I0
sg64
I0
sg65
I0
sg66
I0
sg67
I0
sg68
I0
sg69
I0
sg70
I0
sg71
I0
sg72
I0
sg73
I0
sg74
I0
sg75
I0
sg76
I0
sg77
I0
sg78
I0
sg79
I0
sg80
I0
sg81
I0
sg82
I0
sg83
I0
sg84
I0
sg85
I0
sg86
I0
sg87
I0
sg88
I0
sg89
I0
sg90
I0
sg91
I0
sg92
I0
sg93
I0
sg94
I0
sg95
I0
sg96
I0
sg97
I0
sg98
I0
sg99
I0
sg100
I0
sg101
I0
sg102
I0
sg103
I0
sg104
I0
sg105
I0
sg106
I0
sg107
I47
sg108
I2
sg109
I0
sg110
I0
sg111
I0
sg112
I0
sg113
I0
sg114
I0
sg115
I0
sg116
I0
sg117
I0
sg118
I0
sg119
I0
sg120
I0
sg121
I0
sg122
I2
sg123
I0
sg124
I0
sg125
I0
ssg108
(dp231
g1
I11123
sg3
I772
sg4
I139
sg5
I69
sg6
I1606
sg7
I1261
sg8
I79
sg9
I47
sg10
I77
sg11
I322
sg12
I4
sg13
I40
sg14
I249
sg15
I3953
sg16
I3
sg17
I6585
sg18
I89
sg19
I45
sg20
I1815
sg21
I24
sg22
I3789
sg23
I63
sg24
I0
sg25
I7671
sg26
I2
sg27
I43489
sg28
I154
sg29
I390
sg30
I767
sg31
I2300
sg32
I56
sg33
I1115
sg34
I0
sg35
I1175
sg36
I7568
sg37
I12
sg38
I2
sg39
I170
sg40
I2
sg41
I2535
sg42
I2185
sg43
I3867
sg44
I477
sg45
I97
sg46
I3008
sg47
I2
sg48
I1302
sg49
I1127
sg50
I79905
sg51
I5241
sg52
I855
sg53
I4837
sg54
I1329
sg55
I2788
sg56
I1818
sg57
I2835
sg58
I159
sg59
I1061
sg60
I2025
sg61
I95
sg62
I1448
sg63
I4164
sg64
I57
sg65
I44
sg66
I167
sg67
I1
sg68
I11
sg69
I2586
sg70
I302
sg71
I95
sg72
I2327
sg73
I762
sg74
I2312
sg75
I169
sg76
I384
sg77
I70
sg78
I3319
sg79
I575
sg80
I6
sg81
I51
sg82
I800
sg83
I0
sg84
I426
sg85
I2807
sg86
I2075
sg87
I246
sg88
I321
sg89
I735
sg90
I3648
sg91
I2
sg92
I1
sg93
I246
sg94
I406
sg95
I92
sg96
I0
sg97
I495
sg98
I683
sg99
I30
sg100
I2
sg101
I5302
sg102
I13
sg103
I626
sg104
I221
sg105
I5028
sg106
I5
sg107
I46
sg108
I41589
sg109
I4641
sg110
I0
sg111
I216
sg112
I12
sg113
I0
sg114
I592
sg115
I3
sg116
I123
sg117
I24
sg118
I178
sg119
I854
sg120
I931
sg121
I63
sg122
I31478
sg123
I1220
sg124
I53
sg125
I14
ssg109
(dp232
g1
I2413
sg3
I177
sg4
I32
sg5
I19
sg6
I389
sg7
I275
sg8
I33
sg9
I10
sg10
I19
sg11
I83
sg12
I1
sg13
I14
sg14
I54
sg15
I859
sg16
I0
sg17
I1363
sg18
I34
sg19
I13
sg20
I426
sg21
I3
sg22
I799
sg23
I12
sg24
I0
sg25
I1590
sg26
I0
sg27
I9643
sg28
I40
sg29
I77
sg30
I146
sg31
I503
sg32
I26
sg33
I321
sg34
I1
sg35
I279
sg36
I1792
sg37
I5
sg38
I3
sg39
I46
sg40
I0
sg41
I524
sg42
I464
sg43
I767
sg44
I86
sg45
I36
sg46
I720
sg47
I0
sg48
I288
sg49
I273
sg50
I16647
sg51
I988
sg52
I197
sg53
I1141
sg54
I302
sg55
I593
sg56
I395
sg57
I631
sg58
I46
sg59
I238
sg60
I419
sg61
I14
sg62
I265
sg63
I1059
sg64
I19
sg65
I6
sg66
I51
sg67
I0
sg68
I3
sg69
I582
sg70
I83
sg71
I21
sg72
I526
sg73
I162
sg74
I561
sg75
I35
sg76
I95
sg77
I13
sg78
I677
sg79
I123
sg80
I1
sg81
I9
sg82
I162
sg83
I0
sg84
I92
sg85
I566
sg86
I443
sg87
I73
sg88
I85
sg89
I187
sg90
I721
sg91
I1
sg92
I2
sg93
I56
sg94
I98
sg95
I28
sg96
I1
sg97
I127
sg98
I132
sg99
I17
sg100
I1
sg101
I1076
sg102
I6
sg103
I182
sg104
I48
sg105
I1090
sg106
I2
sg107
I7
sg108
I3664
sg109
I6608
sg110
I0
sg111
I42
sg112
I1
sg113
I0
sg114
I117
sg115
I0
sg116
I21
sg117
I5
sg118
I45
sg119
I217
sg120
I236
sg121
I24
sg122
I6390
sg123
I277
sg124
I17
sg125
I1
ssg110
(dp233
g1
I0
sg3
I0
sg4
I0
sg5
I0
sg6
I0
sg7
I0
sg8
I0
sg9
I0
sg10
I0
sg11
I0
sg12
I0
sg13
I0
sg14
I0
sg15
I0
sg16
I0
sg17
I0
sg18
I0
sg19
I0
sg20
I0
sg21
I0
sg22
I0
sg23
I0
sg24
I0
sg25
I0
sg26
I0
sg27
I1
sg28
I0
sg29
I0
sg30
I0
sg31
I0
sg32
I0
sg33
I0
sg34
I0
sg35
I0
sg36
I0
sg37
I0
sg38
I0
sg39
I0
sg40
I0
sg41
I0
sg42
I0
sg43
I0
sg44
I0
sg45
I0
sg46
I0
sg47
I0
sg48
I0
sg49
I0
sg50
I0
sg51
I0
sg52
I0
sg53
I0
sg54
I0
sg55
I0
sg56
I0
sg57
I0
sg58
I0
sg59
I0
sg60
I0
sg61
I0
sg62
I0
sg63
I0
sg64
I0
sg65
I0
sg66
I0
sg67
I0
sg68
I0
sg69
I0
sg70
I0
sg71
I0
sg72
I0
sg73
I0
sg74
I0
sg75
I0
sg76
I0
sg77
I0
sg78
I0
sg79
I0
sg80
I0
sg81
I0
sg82
I0
sg83
I0
sg84
I0
sg85
I0
sg86
I0
sg87
I0
sg88
I0
sg89
I0
sg90
I0
sg91
I0
sg92
I0
sg93
I0
sg94
I0
sg95
I0
sg96
I0
sg97
I0
sg98
I0
sg99
I0
sg100
I0
sg101
I0
sg102
I0
sg103
I0
sg104
I0
sg105
I0
sg106
I0
sg107
I0
sg108
I0
sg109
I0
sg110
I0
sg111
I0
sg112
I0
sg113
I0
sg114
I0
sg115
I0
sg116
I0
sg117
I0
sg118
I0
sg119
I0
sg120
I0
sg121
I0
sg122
I0
sg123
I0
sg124
I0
sg125
I0
ssg111
(dp234
g1
I60
sg3
I7
sg4
I0
sg5
I0
sg6
I6
sg7
I7
sg8
I1
sg9
I0
sg10
I0
sg11
I3
sg12
I1
sg13
I0
sg14
I2
sg15
I13
sg16
I0
sg17
I37
sg18
I1
sg19
I0
sg20
I14
sg21
I1
sg22
I30
sg23
I2
sg24
I0
sg25
I37
sg26
I0
sg27
I228
sg28
I0
sg29
I2
sg30
I1
sg31
I19
sg32
I0
sg33
I7
sg34
I0
sg35
I7
sg36
I30
sg37
I0
sg38
I0
sg39
I3
sg40
I0
sg41
I10
sg42
I12
sg43
I10
sg44
I1
sg45
I1
sg46
I13
sg47
I0
sg48
I7
sg49
I8
sg50
I397
sg51
I30
sg52
I7
sg53
I15
sg54
I9
sg55
I13
sg56
I7
sg57
I24
sg58
I0
sg59
I7
sg60
I7
sg61
I0
sg62
I1
sg63
I33
sg64
I0
sg65
I0
sg66
I1
sg67
I0
sg68
I0
sg69
I11
sg70
I5
sg71
I0
sg72
I12
sg73
I6
sg74
I12
sg75
I0
sg76
I1
sg77
I0
sg78
I17
sg79
I3
sg80
I0
sg81
I0
sg82
I5
sg83
I0
sg84
I0
sg85
I13
sg86
I9
sg87
I1
sg88
I1
sg89
I5
sg90
I12
sg91
I0
sg92
I0
sg93
I3
sg94
I2
sg95
I0
sg96
I0
sg97
I7
sg98
I1
sg99
I0
sg100
I0
sg101
I16
sg102
I0
sg103
I4
sg104
I2
sg105
I25
sg106
I0
sg107
I1
sg108
I57
sg109
I25
sg110
I0
sg111
I250
sg112
I0
sg113
I0
sg114
I2
sg115
I0
sg116
I1
sg117
I0
sg118
I1
sg119
I4
sg120
I11
sg121
I0
sg122
I171
sg123
I8
sg124
I0
sg125
I0
ssg112
(dp235
g1
I0
sg3
I1
sg4
I0
sg5
I0
sg6
I0
sg7
I0
sg8
I0
sg9
I0
sg10
I0
sg11
I0
sg12
I0
sg13
I0
sg14
I0
sg15
I0
sg16
I0
sg17
I1
sg18
I0
sg19
I0
sg20
I0
sg21
I0
sg22
I0
sg23
I0
sg24
I0
sg25
I1
sg26
I0
sg27
I0
sg28
I0
sg29
I0
sg30
I0
sg31
I0
sg32
I0
sg33
I0
sg34
I0
sg35
I0
sg36
I1
sg37
I0
sg38
I0
sg39
I0
sg40
I0
sg41
I0
sg42
I0
sg43
I0
sg44
I0
sg45
I0
sg46
I0
sg47
I0
sg48
I0
sg49
I0
sg50
I5
sg51
I0
sg52
I0
sg53
I0
sg54
I0
sg55
I0
sg56
I0
sg57
I0
sg58
I0
sg59
I0
sg60
I0
sg61
I0
sg62
I0
sg63
I0
sg64
I0
sg65
I0
sg66
I0
sg67
I0
sg68
I0
sg69
I0
sg70
I0
sg71
I0
sg72
I0
sg73
I0
sg74
I0
sg75
I0
sg76
I0
sg77
I0
sg78
I0
sg79
I0
sg80
I0
sg81
I0
sg82
I0
sg83
I0
sg84
I0
sg85
I0
sg86
I0
sg87
I0
sg88
I0
sg89
I0
sg90
I0
sg91
I0
sg92
I0
sg93
I0
sg94
I0
sg95
I0
sg96
I0
sg97
I0
sg98
I0
sg99
I0
sg100
I0
sg101
I1
sg102
I0
sg103
I0
sg104
I0
sg105
I0
sg106
I0
sg107
I0
sg108
I0
sg109
I0
sg110
I0
sg111
I0
sg112
I0
sg113
I0
sg114
I0
sg115
I0
sg116
I0
sg117
I0
sg118
I0
sg119
I0
sg120
I0
sg121
I0
sg122
I0
sg123
I0
sg124
I0
sg125
I0
ssg113
(dp236
g1
I0
sg3
I0
sg4
I0
sg5
I0
sg6
I0
sg7
I0
sg8
I0
sg9
I0
sg10
I0
sg11
I0
sg12
I0
sg13
I0
sg14
I0
sg15
I0
sg16
I0
sg17
I0
sg18
I0
sg19
I0
sg20
I0
sg21
I0
sg22
I0
sg23
I0
sg24
I0
sg25
I0
sg26
I0
sg27
I2
sg28
I0
sg29
I0
sg30
I0
sg31
I0
sg32
I0
sg33
I0
sg34
I0
sg35
I0
sg36
I1
sg37
I0
sg38
I0
sg39
I0
sg40
I0
sg41
I2
sg42
I0
sg43
I0
sg44
I0
sg45
I0
sg46
I0
sg47
I0
sg48
I0
sg49
I0
sg50
I11
sg51
I0
sg52
I0
sg53
I0
sg54
I0
sg55
I0
sg56
I0
sg57
I0
sg58
I0
sg59
I0
sg60
I0
sg61
I0
sg62
I0
sg63
I0
sg64
I0
sg65
I0
sg66
I0
sg67
I0
sg68
I0
sg69
I0
sg70
I0
sg71
I0
sg72
I0
sg73
I0
sg74
I1
sg75
I0
sg76
I0
sg77
I0
sg78
I0
sg79
I0
sg80
I0
sg81
I0
sg82
I0
sg83
I0
sg84
I0
sg85
I0
sg86
I0
sg87
I0
sg88
I0
sg89
I0
sg90
I0
sg91
I0
sg92
I0
sg93
I0
sg94
I0
sg95
I0
sg96
I0
sg97
I0
sg98
I0
sg99
I0
sg100
I0
sg101
I2
sg102
I0
sg103
I0
sg104
I0
sg105
I0
sg106
I0
sg107
I0
sg108
I0
sg109
I0
sg110
I0
sg111
I0
sg112
I0
sg113
I1
sg114
I0
sg115
I0
sg116
I0
sg117
I0
sg118
I0
sg119
I0
sg120
I0
sg121
I0
sg122
I3
sg123
I0
sg124
I0
sg125
I0
ssg114
(dp237
g1
I202
sg3
I20
sg4
I3
sg5
I0
sg6
I27
sg7
I18
sg8
I1
sg9
I0
sg10
I2
sg11
I9
sg12
I0
sg13
I0
sg14
I6
sg15
I89
sg16
I0
sg17
I137
sg18
I5
sg19
I3
sg20
I47
sg21
I0
sg22
I69
sg23
I0
sg24
I0
sg25
I172
sg26
I0
sg27
I805
sg28
I1
sg29
I10
sg30
I5
sg31
I42
sg32
I3
sg33
I18
sg34
I0
sg35
I14
sg36
I127
sg37
I0
sg38
I0
sg39
I4
sg40
I0
sg41
I60
sg42
I45
sg43
I62
sg44
I11
sg45
I3
sg46
I56
sg47
I0
sg48
I19
sg49
I17
sg50
I1503
sg51
I105
sg52
I13
sg53
I76
sg54
I32
sg55
I67
sg56
I27
sg57
I67
sg58
I9
sg59
I29
sg60
I32
sg61
I3
sg62
I15
sg63
I70
sg64
I4
sg65
I2
sg66
I1
sg67
I0
sg68
I0
sg69
I57
sg70
I7
sg71
I4
sg72
I35
sg73
I13
sg74
I52
sg75
I1
sg76
I11
sg77
I0
sg78
I75
sg79
I9
sg80
I0
sg81
I2
sg82
I17
sg83
I0
sg84
I7
sg85
I66
sg86
I51
sg87
I7
sg88
I4
sg89
I13
sg90
I48
sg91
I0
sg92
I0
sg93
I5
sg94
I11
sg95
I0
sg96
I0
sg97
I10
sg98
I10
sg99
I1
sg100
I0
sg101
I88
sg102
I1
sg103
I13
sg104
I4
sg105
I72
sg106
I2
sg107
I0
sg108
I262
sg109
I74
sg110
I0
sg111
I6
sg112
I0
sg113
I0
sg114
I636
sg115
I0
sg116
I1
sg117
I0
sg118
I3
sg119
I14
sg120
I23
sg121
I0
sg122
I680
sg123
I19
sg124
I0
sg125
I1
ssg115
(dp238
g1
I15
sg3
I0
sg4
I0
sg5
I0
sg6
I1
sg7
I3
sg8
I0
sg9
I0
sg10
I0
sg11
I1
sg12
I0
sg13
I0
sg14
I0
sg15
I5
sg16
I0
sg17
I0
sg18
I0
sg19
I0
sg20
I0
sg21
I0
sg22
I1
sg23
I1
sg24
I0
sg25
I6
sg26
I0
sg27
I21
sg28
I0
sg29
I0
sg30
I3
sg31
I0
sg32
I0
sg33
I1
sg34
I0
sg35
I0
sg36
I3
sg37
I0
sg38
I0
sg39
I0
sg40
I0
sg41
I2
sg42
I3
sg43
I2
sg44
I0
sg45
I0
sg46
I0
sg47
I0
sg48
I2
sg49
I4
sg50
I56
sg51
I2
sg52
I1
sg53
I3
sg54
I0
sg55
I2
sg56
I0
sg57
I1
sg58
I0
sg59
I2
sg60
I0
sg61
I0
sg62
I0
sg63
I2
sg64
I0
sg65
I0
sg66
I0
sg67
I0
sg68
I0
sg69
I0
sg70
I0
sg71
I0
sg72
I2
sg73
I0
sg74
I2
sg75
I0
sg76
I0
sg77
I0
sg78
I0
sg79
I0
sg80
I0
sg81
I1
sg82
I0
sg83
I0
sg84
I0
sg85
I0
sg86
I2
sg87
I0
sg88
I0
sg89
I0
sg90
I0
sg91
I0
sg92
I0
sg93
I0
sg94
I0
sg95
I0
sg96
I0
sg97
I0
sg98
I0
sg99
I0
sg100
I0
sg101
I5
sg102
I0
sg103
I2
sg104
I1
sg105
I2
sg106
I0
sg107
I0
sg108
I5
sg109
I1
sg110
I0
sg111
I0
sg112
I0
sg113
I0
sg114
I0
sg115
I5
sg116
I0
sg117
I1
sg118
I0
sg119
I1
sg120
I0
sg121
I0
sg122
I13
sg123
I1
sg124
I0
sg125
I0
ssg116
(dp239
g1
I17
sg3
I0
sg4
I2
sg5
I0
sg6
I1
sg7
I4
sg8
I0
sg9
I0
sg10
I0
sg11
I0
sg12
I0
sg13
I0
sg14
I1
sg15
I6
sg16
I0
sg17
I7
sg18
I0
sg19
I0
sg20
I1
sg21
I1
sg22
I17
sg23
I0
sg24
I0
sg25
I19
sg26
I0
sg27
I99
sg28
I2
sg29
I0
sg30
I0
sg31
I8
sg32
I0
sg33
I2
sg34
I0
sg35
I1
sg36
I6
sg37
I0
sg38
I0
sg39
I0
sg40
I0
sg41
I9
sg42
I5
sg43
I2
sg44
I0
sg45
I0
sg46
I12
sg47
I0
sg48
I2
sg49
I4
sg50
I180
sg51
I15
sg52
I2
sg53
I4
sg54
I3
sg55
I4
sg56
I0
sg57
I10
sg58
I0
sg59
I3
sg60
I1
sg61
I1
sg62
I1
sg63
I9
sg64
I1
sg65
I0
sg66
I0
sg67
I0
sg68
I0
sg69
I4
sg70
I1
sg71
I0
sg72
I5
sg73
I2
sg74
I10
sg75
I2
sg76
I1
sg77
I1
sg78
I7
sg79
I1
sg80
I0
sg81
I0
sg82
I1
sg83
I0
sg84
I0
sg85
I6
sg86
I6
sg87
I0
sg88
I1
sg89
I1
sg90
I6
sg91
I0
sg92
I0
sg93
I0
sg94
I2
sg95
I0
sg96
I0
sg97
I0
sg98
I1
sg99
I0
sg100
I0
sg101
I5
sg102
I0
sg103
I5
sg104
I0
sg105
I9
sg106
I0
sg107
I0
sg108
I21
sg109
I9
sg110
I0
sg111
I1
sg112
I0
sg113
I0
sg114
I1
sg115
I0
sg116
I55
sg117
I0
sg118
I1
sg119
I0
sg120
I6
sg121
I0
sg122
I75
sg123
I5
sg124
I0
sg125
I0
ssg117
(dp240
g1
I11
sg3
I0
sg4
I0
sg5
I0
sg6
I1
sg7
I2
sg8
I0
sg9
I0
sg10
I0
sg11
I0
sg12
I0
sg13
I0
sg14
I0
sg15
I2
sg16
I0
sg17
I2
sg18
I0
sg19
I0
sg20
I0
sg21
I0
sg22
I2
sg23
I0
sg24
I0
sg25
I13
sg26
I0
sg27
I6
sg28
I0
sg29
I0
sg30
I0
sg31
I1
sg32
I0
sg33
I0
sg34
I0
sg35
I0
sg36
I0
sg37
I0
sg38
I0
sg39
I0
sg40
I0
sg41
I0
sg42
I2
sg43
I0
sg44
I0
sg45
I0
sg46
I0
sg47
I0
sg48
I1
sg49
I0
sg50
I49
sg51
I1
sg52
I0
sg53
I0
sg54
I0
sg55
I2
sg56
I0
sg57
I1
sg58
I0
sg59
I0
sg60
I2
sg61
I0
sg62
I0
sg63
I1
sg64
I0
sg65
I0
sg66
I0
sg67
I0
sg68
I0
sg69
I1
sg70
I0
sg71
I0
sg72
I0
sg73
I0
sg74
I1
sg75
I0
sg76
I2
sg77
I1
sg78
I1
sg79
I0
sg80
I0
sg81
I1
sg82
I1
sg83
I0
sg84
I0
sg85
I1
sg86
I1
sg87
I0
sg88
I1
sg89
I1
sg90
I0
sg91
I0
sg92
I0
sg93
I0
sg94
I0
sg95
I0
sg96
I0
sg97
I1
sg98
I0
sg99
I0
sg100
I0
sg101
I2
sg102
I0
sg103
I0
sg104
I0
sg105
I3
sg106
I0
sg107
I0
sg108
I12
sg109
I2
sg110
I0
sg111
I0
sg112
I0
sg113
I0
sg114
I0
sg115
I0
sg116
I0
sg117
I16
sg118
I0
sg119
I2
sg120
I0
sg121
I0
sg122
I9
sg123
I0
sg124
I0
sg125
I0
ssg118
(dp241
g1
I38
sg3
I6
sg4
I4
sg5
I0
sg6
I20
sg7
I3
sg8
I0
sg9
I0
sg10
I2
sg11
I1
sg12
I0
sg13
I0
sg14
I1
sg15
I13
sg16
I0
sg17
I11
sg18
I0
sg19
I0
sg20
I15
sg21
I0
sg22
I17
sg23
I1
sg24
I0
sg25
I26
sg26
I0
sg27
I268
sg28
I0
sg29
I1
sg30
I8
sg31
I12
sg32
I0
sg33
I8
sg34
I0
sg35
I3
sg36
I14
sg37
I0
sg38
I0
sg39
I1
sg40
I0
sg41
I5
sg42
I17
sg43
I11
sg44
I1
sg45
I0
sg46
I8
sg47
I0
sg48
I5
sg49
I12
sg50
I168
sg51
I9
sg52
I7
sg53
I6
sg54
I6
sg55
I11
sg56
I5
sg57
I11
sg58
I2
sg59
I15
sg60
I4
sg61
I0
sg62
I9
sg63
I13
sg64
I1
sg65
I0
sg66
I2
sg67
I0
sg68
I0
sg69
I4
sg70
I2
sg71
I0
sg72
I7
sg73
I3
sg74
I21
sg75
I1
sg76
I2
sg77
I0
sg78
I11
sg79
I2
sg80
I0
sg81
I0
sg82
I3
sg83
I0
sg84
I0
sg85
I5
sg86
I21
sg87
I0
sg88
I4
sg89
I1
sg90
I15
sg91
I0
sg92
I0
sg93
I2
sg94
I5
sg95
I0
sg96
I0
sg97
I2
sg98
I4
sg99
I1
sg100
I0
sg101
I14
sg102
I0
sg103
I7
sg104
I2
sg105
I5
sg106
I0
sg107
I0
sg108
I34
sg109
I9
sg110
I0
sg111
I0
sg112
I0
sg113
I0
sg114
I1
sg115
I0
sg116
I0
sg117
I0
sg118
I208
sg119
I3
sg120
I4
sg121
I0
sg122
I48
sg123
I5
sg124
I1
sg125
I0
ssg119
(dp242
g1
I460
sg3
I23
sg4
I11
sg5
I1
sg6
I33
sg7
I69
sg8
I7
sg9
I2
sg10
I6
sg11
I11
sg12
I0
sg13
I1
sg14
I8
sg15
I93
sg16
I0
sg17
I123
sg18
I4
sg19
I2
sg20
I75
sg21
I1
sg22
I106
sg23
I4
sg24
I0
sg25
I322
sg26
I0
sg27
I1085
sg28
I5
sg29
I10
sg30
I13
sg31
I54
sg32
I2
sg33
I25
sg34
I0
sg35
I27
sg36
I144
sg37
I0
sg38
I0
sg39
I10
sg40
I0
sg41
I61
sg42
I45
sg43
I83
sg44
I8
sg45
I7
sg46
I65
sg47
I0
sg48
I33
sg49
I35
sg50
I3490
sg51
I126
sg52
I23
sg53
I83
sg54
I37
sg55
I75
sg56
I44
sg57
I84
sg58
I9
sg59
I34
sg60
I42
sg61
I4
sg62
I33
sg63
I176
sg64
I1
sg65
I1
sg66
I8
sg67
I0
sg68
I0
sg69
I65
sg70
I7
sg71
I4
sg72
I46
sg73
I15
sg74
I46
sg75
I1
sg76
I19
sg77
I4
sg78
I71
sg79
I18
sg80
I0
sg81
I1
sg82
I25
sg83
I0
sg84
I7
sg85
I60
sg86
I63
sg87
I6
sg88
I13
sg89
I12
sg90
I74
sg91
I0
sg92
I1
sg93
I13
sg94
I17
sg95
I0
sg96
I0
sg97
I31
sg98
I20
sg99
I1
sg100
I0
sg101
I126
sg102
I1
sg103
I28
sg104
I12
sg105
I122
sg106
I0
sg107
I0
sg108
I381
sg109
I94
sg110
I0
sg111
I6
sg112
I0
sg113
I0
sg114
I13
sg115
I0
sg116
I4
sg117
I0
sg118
I3
sg119
I1130
sg120
I28
sg121
I1
sg122
I773
sg123
I28
sg124
I5
sg125
I1
ssg120
(dp243
g1
I160
sg3
I16
sg4
I3
sg5
I1
sg6
I37
sg7
I20
sg8
I2
sg9
I0
sg10
I2
sg11
I18
sg12
I0
sg13
I1
sg14
I14
sg15
I69
sg16
I0
sg17
I122
sg18
I2
sg19
I4
sg20
I40
sg21
I0
sg22
I132
sg23
I8
sg24
I0
sg25
I150
sg26
I0
sg27
I1119
sg28
I5
sg29
I14
sg30
I12
sg31
I61
sg32
I2
sg33
I34
sg34
I0
sg35
I17
sg36
I119
sg37
I0
sg38
I0
sg39
I7
sg40
I0
sg41
I23
sg42
I50
sg43
I68
sg44
I4
sg45
I6
sg46
I56
sg47
I0
sg48
I12
sg49
I41
sg50
I1427
sg51
I91
sg52
I22
sg53
I86
sg54
I14
sg55
I48
sg56
I38
sg57
I60
sg58
I8
sg59
I36
sg60
I19
sg61
I1
sg62
I21
sg63
I73
sg64
I3
sg65
I0
sg66
I3
sg67
I0
sg68
I0
sg69
I43
sg70
I14
sg71
I6
sg72
I32
sg73
I9
sg74
I71
sg75
I5
sg76
I2
sg77
I2
sg78
I55
sg79
I15
sg80
I0
sg81
I4
sg82
I16
sg83
I0
sg84
I11
sg85
I52
sg86
I71
sg87
I4
sg88
I12
sg89
I8
sg90
I41
sg91
I0
sg92
I0
sg93
I5
sg94
I15
sg95
I2
sg96
I0
sg97
I15
sg98
I17
sg99
I1
sg100
I0
sg101
I86
sg102
I0
sg103
I20
sg104
I11
sg105
I93
sg106
I0
sg107
I0
sg108
I229
sg109
I60
sg110
I0
sg111
I2
sg112
I0
sg113
I0
sg114
I13
sg115
I0
sg116
I4
sg117
I1
sg118
I6
sg119
I25
sg120
I965
sg121
I0
sg122
I582
sg123
I30
sg124
I1
sg125
I0
ssg121
(dp244
g1
I54
sg3
I1
sg4
I0
sg5
I0
sg6
I6
sg7
I9
sg8
I0
sg9
I0
sg10
I1
sg11
I1
sg12
I0
sg13
I0
sg14
I1
sg15
I15
sg16
I0
sg17
I29
sg18
I1
sg19
I0
sg20
I5
sg21
I0
sg22
I11
sg23
I0
sg24
I0
sg25
I17
sg26
I0
sg27
I128
sg28
I0
sg29
I1
sg30
I1
sg31
I10
sg32
I0
sg33
I3
sg34
I0
sg35
I5
sg36
I48
sg37
I0
sg38
I0
sg39
I4
sg40
I0
sg41
I7
sg42
I10
sg43
I8
sg44
I1
sg45
I0
sg46
I10
sg47
I0
sg48
I3
sg49
I3
sg50
I312
sg51
I9
sg52
I1
sg53
I21
sg54
I6
sg55
I7
sg56
I9
sg57
I7
sg58
I1
sg59
I1
sg60
I7
sg61
I0
sg62
I3
sg63
I21
sg64
I0
sg65
I1
sg66
I2
sg67
I0
sg68
I0
sg69
I9
sg70
I0
sg71
I2
sg72
I5
sg73
I2
sg74
I14
sg75
I1
sg76
I3
sg77
I1
sg78
I7
sg79
I1
sg80
I0
sg81
I0
sg82
I1
sg83
I0
sg84
I1
sg85
I6
sg86
I9
sg87
I0
sg88
I5
sg89
I1
sg90
I8
sg91
I0
sg92
I0
sg93
I2
sg94
I2
sg95
I0
sg96
I0
sg97
I7
sg98
I2
sg99
I1
sg100
I0
sg101
I31
sg102
I0
sg103
I3
sg104
I1
sg105
I11
sg106
I0
sg107
I0
sg108
I48
sg109
I19
sg110
I0
sg111
I0
sg112
I0
sg113
I0
sg114
I4
sg115
I0
sg116
I1
sg117
I1
sg118
I1
sg119
I6
sg120
I5
sg121
I137
sg122
I73
sg123
I7
sg124
I0
sg125
I0
ssg122
(dp245
g1
I20053
sg3
I1186
sg4
I243
sg5
I81
sg6
I2291
sg7
I2097
sg8
I164
sg9
I49
sg10
I141
sg11
I474
sg12
I3
sg13
I56
sg14
I378
sg15
I5990
sg16
I2
sg17
I11670
sg18
I242
sg19
I92
sg20
I3345
sg21
I38
sg22
I6363
sg23
I138
sg24
I1
sg25
I14762
sg26
I2
sg27
I68664
sg28
I261
sg29
I561
sg30
I934
sg31
I4085
sg32
I105
sg33
I1717
sg34
I1
sg35
I1821
sg36
I11666
sg37
I24
sg38
I5
sg39
I264
sg40
I2
sg41
I4798
sg42
I3308
sg43
I5134
sg44
I786
sg45
I228
sg46
I4502
sg47
I6
sg48
I1995
sg49
I1657
sg50
I150543
sg51
I9595
sg52
I1362
sg53
I7274
sg54
I2137
sg55
I4934
sg56
I3043
sg57
I6046
sg58
I310
sg59
I1630
sg60
I3123
sg61
I165
sg62
I2003
sg63
I6935
sg64
I153
sg65
I61
sg66
I252
sg67
I0
sg68
I9
sg69
I4978
sg70
I599
sg71
I150
sg72
I3593
sg73
I1239
sg74
I4063
sg75
I257
sg76
I626
sg77
I121
sg78
I5811
sg79
I958
sg80
I9
sg81
I65
sg82
I1231
sg83
I1
sg84
I805
sg85
I5636
sg86
I3339
sg87
I476
sg88
I434
sg89
I1277
sg90
I5107
sg91
I3
sg92
I8
sg93
I459
sg94
I814
sg95
I113
sg96
I0
sg97
I812
sg98
I942
sg99
I47
sg100
I7
sg101
I8160
sg102
I18
sg103
I1131
sg104
I318
sg105
I9250
sg106
I11
sg107
I96
sg108
I26606
sg109
I7153
sg110
I0
sg111
I339
sg112
I5
sg113
I7
sg114
I991
sg115
I11
sg116
I230
sg117
I58
sg118
I242
sg119
I1397
sg120
I1696
sg121
I75
sg122
I111570
sg123
I2003
sg124
I101
sg125
I16
ssg123
(dp246
g1
I648
sg3
I36
sg4
I7
sg5
I2
sg6
I115
sg7
I83
sg8
I5
sg9
I1
sg10
I9
sg11
I34
sg12
I0
sg13
I4
sg14
I22
sg15
I226
sg16
I0
sg17
I393
sg18
I11
sg19
I8
sg20
I131
sg21
I2
sg22
I315
sg23
I7
sg24
I0
sg25
I496
sg26
I0
sg27
I2970
sg28
I9
sg29
I28
sg30
I44
sg31
I177
sg32
I2
sg33
I104
sg34
I0
sg35
I53
sg36
I410
sg37
I3
sg38
I0
sg39
I16
sg40
I0
sg41
I132
sg42
I135
sg43
I219
sg44
I23
sg45
I10
sg46
I151
sg47
I1
sg48
I64
sg49
I72
sg50
I4701
sg51
I289
sg52
I48
sg53
I232
sg54
I77
sg55
I151
sg56
I123
sg57
I180
sg58
I25
sg59
I79
sg60
I110
sg61
I8
sg62
I62
sg63
I273
sg64
I5
sg65
I1
sg66
I15
sg67
I0
sg68
I0
sg69
I139
sg70
I28
sg71
I8
sg72
I132
sg73
I45
sg74
I201
sg75
I12
sg76
I23
sg77
I3
sg78
I182
sg79
I31
sg80
I1
sg81
I4
sg82
I34
sg83
I0
sg84
I21
sg85
I191
sg86
I137
sg87
I13
sg88
I25
sg89
I41
sg90
I169
sg91
I0
sg92
I0
sg93
I16
sg94
I30
sg95
I4
sg96
I0
sg97
I25
sg98
I33
sg99
I2
sg100
I0
sg101
I306
sg102
I1
sg103
I56
sg104
I19
sg105
I318
sg106
I0
sg107
I5
sg108
I943
sg109
I272
sg110
I0
sg111
I21
sg112
I0
sg113
I0
sg114
I31
sg115
I0
sg116
I8
sg117
I2
sg118
I7
sg119
I64
sg120
I71
sg121
I4
sg122
I1992
sg123
I1475
sg124
I4
sg125
I1
ssg124
(dp247
g1
I71
sg3
I0
sg4
I0
sg5
I0
sg6
I5
sg7
I7
sg8
I1
sg9
I0
sg10
I0
sg11
I3
sg12
I0
sg13
I0
sg14
I1
sg15
I11
sg16
I0
sg17
I20
sg18
I0
sg19
I0
sg20
I6
sg21
I1
sg22
I19
sg23
I0
sg24
I0
sg25
I26
sg26
I0
sg27
I187
sg28
I0
sg29
I2
sg30
I4
sg31
I9
sg32
I0
sg33
I3
sg34
I0
sg35
I3
sg36
I24
sg37
I0
sg38
I0
sg39
I2
sg40
I0
sg41
I9
sg42
I12
sg43
I14
sg44
I0
sg45
I1
sg46
I7
sg47
I0
sg48
I6
sg49
I3
sg50
I391
sg51
I17
sg52
I4
sg53
I24
sg54
I2
sg55
I12
sg56
I12
sg57
I7
sg58
I0
sg59
I3
sg60
I7
sg61
I1
sg62
I8
sg63
I30
sg64
I1
sg65
I0
sg66
I0
sg67
I0
sg68
I0
sg69
I14
sg70
I2
sg71
I0
sg72
I8
sg73
I2
sg74
I13
sg75
I0
sg76
I2
sg77
I1
sg78
I15
sg79
I2
sg80
I0
sg81
I0
sg82
I4
sg83
I0
sg84
I2
sg85
I6
sg86
I7
sg87
I0
sg88
I1
sg89
I1
sg90
I14
sg91
I0
sg92
I0
sg93
I0
sg94
I2
sg95
I0
sg96
I0
sg97
I3
sg98
I1
sg99
I0
sg100
I0
sg101
I17
sg102
I0
sg103
I0
sg104
I1
sg105
I27
sg106
I0
sg107
I0
sg108
I60
sg109
I18
sg110
I0
sg111
I0
sg112
I0
sg113
I0
sg114
I3
sg115
I0
sg116
I3
sg117
I0
sg118
I2
sg119
I2
sg120
I8
sg121
I0
sg122
I116
sg123
I3
sg124
I78
sg125
I0
ssg125
(dp248
g1
I3
sg3
I0
sg4
I0
sg5
I0
sg6
I0
sg7
I0
sg8
I0
sg9
I0
sg10
I0
sg11
I0
sg12
I0
sg13
I0
sg14
I0
sg15
I0
sg16
I0
sg17
I0
sg18
I0
sg19
I0
sg20
I0
sg21
I0
sg22
I0
sg23
I0
sg24
I0
sg25
I11
sg26
I0
sg27
I17
sg28
I0
sg29
I0
sg30
I0
sg31
I0
sg32
I0
sg33
I1
sg34
I0
sg35
I1
sg36
I0
sg37
I0
sg38
I0
sg39
I0
sg40
I0
sg41
I1
sg42
I1
sg43
I0
sg44
I0
sg45
I0
sg46
I1
sg47
I0
sg48
I0
sg49
I1
sg50
I35
sg51
I2
sg52
I0
sg53
I0
sg54
I0
sg55
I2
sg56
I2
sg57
I2
sg58
I0
sg59
I1
sg60
I1
sg61
I0
sg62
I0
sg63
I1
sg64
I0
sg65
I0
sg66
I0
sg67
I0
sg68
I0
sg69
I1
sg70
I0
sg71
I0
sg72
I0
sg73
I0
sg74
I0
sg75
I0
sg76
I0
sg77
I0
sg78
I3
sg79
I0
sg80
I0
sg81
I0
sg82
I1
sg83
I0
sg84
I0
sg85
I0
sg86
I2
sg87
I0
sg88
I0
sg89
I0
sg90
I2
sg91
I0
sg92
I0
sg93
I0
sg94
I0
sg95
I0
sg96
I0
sg97
I0
sg98
I0
sg99
I0
sg100
I0
sg101
I2
sg102
I0
sg103
I0
sg104
I0
sg105
I3
sg106
I0
sg107
I0
sg108
I3
sg109
I2
sg110
I0
sg111
I0
sg112
I0
sg113
I0
sg114
I0
sg115
I0
sg116
I0
sg117
I0
sg118
I0
sg119
I1
sg120
I1
sg121
I0
sg122
I17
sg123
I0
sg124
I0
sg125
I12
ss.